;--------------------------------------------------------
; File Created by SDCC : free open source ANSI-C Compiler
; Version 3.6.0 #9615 (MINGW64)
;--------------------------------------------------------
	.module main
	.optsdcc -mmcs51 --model-small
	
;--------------------------------------------------------
; Public variables in this module
;--------------------------------------------------------
	.globl _fonte
	.globl _samples
	.globl _main
	.globl _Timer2_Int
	.globl _UART_Int
	.globl _printf_fast_f
	.globl _WatchDog_Int
	.globl _loading_screen
	.globl _glcd_init
	.globl _limpa_linha_glcd
	.globl _clear_all_glcd
	.globl _limpa_glcd
	.globl _conf_pag
	.globl _conf_Y
	.globl _esc_glcd
	.globl _le_glcd
	.globl _delay_480ns
	.globl _delay_320ns
	.globl _delay_160ns
	.globl _delay_us
	.globl _delay_ms
	.globl _Init_Device
	.globl _Interrupts_Init
	.globl _Oscillator_Init
	.globl _Port_IO_Init
	.globl _Voltage_Reference_Init
	.globl _DAC_Init
	.globl _SPI_Init
	.globl _SMBus_Init
	.globl _UART_Init
	.globl _Timer_Init
	.globl _P7_7
	.globl _P7_6
	.globl _P7_5
	.globl _P7_4
	.globl _P7_3
	.globl _P7_2
	.globl _P7_1
	.globl _P7_0
	.globl _P6_7
	.globl _P6_6
	.globl _P6_5
	.globl _P6_4
	.globl _P6_3
	.globl _P6_2
	.globl _P6_1
	.globl _P6_0
	.globl _P5_7
	.globl _P5_6
	.globl _P5_5
	.globl _P5_4
	.globl _P5_3
	.globl _P5_2
	.globl _P5_1
	.globl _P5_0
	.globl _P4_7
	.globl _P4_6
	.globl _P4_5
	.globl _P4_4
	.globl _P4_3
	.globl _P4_2
	.globl _P4_1
	.globl _P4_0
	.globl _P3_7
	.globl _P3_6
	.globl _P3_5
	.globl _P3_4
	.globl _P3_3
	.globl _P3_2
	.globl _P3_1
	.globl _P3_0
	.globl _P2_7
	.globl _P2_6
	.globl _P2_5
	.globl _P2_4
	.globl _P2_3
	.globl _P2_2
	.globl _P2_1
	.globl _P2_0
	.globl _P1_7
	.globl _P1_6
	.globl _P1_5
	.globl _P1_4
	.globl _P1_3
	.globl _P1_2
	.globl _P1_1
	.globl _P1_0
	.globl _P0_7
	.globl _P0_6
	.globl _P0_5
	.globl _P0_4
	.globl _P0_3
	.globl _P0_2
	.globl _P0_1
	.globl _P0_0
	.globl _CANTEST
	.globl _CANCCE
	.globl _CANDAR
	.globl _CANIF
	.globl _CANEIE
	.globl _CANSIE
	.globl _CANIE
	.globl _CANINIT
	.globl _SPIEN
	.globl _TXBMT
	.globl _NSSMD0
	.globl _NSSMD1
	.globl _RXOVRN
	.globl _MODF
	.globl _WCOL
	.globl _SPIF
	.globl _AD2WINT
	.globl _AD2CM0
	.globl _AD2CM1
	.globl _AD2CM2
	.globl _AD2BUSY
	.globl _AD2INT
	.globl _AD2TM
	.globl _AD2EN
	.globl _AD0LJST
	.globl _AD0WINT
	.globl _AD0CM0
	.globl _AD0CM1
	.globl _AD0BUSY
	.globl _AD0INT
	.globl _AD0TM
	.globl _AD0EN
	.globl _CCF0
	.globl _CCF1
	.globl _CCF2
	.globl _CCF3
	.globl _CCF4
	.globl _CCF5
	.globl _CR
	.globl _CF
	.globl _P
	.globl _F1
	.globl _OV
	.globl _RS0
	.globl _RS1
	.globl _F0
	.globl _AC
	.globl _CY
	.globl _CPRL4
	.globl _CT4
	.globl _TR4
	.globl _EXEN4
	.globl _EXF4
	.globl _TF4
	.globl _CPRL3
	.globl _CT3
	.globl _TR3
	.globl _EXEN3
	.globl _EXF3
	.globl _TF3
	.globl _CPRL2
	.globl _CT2
	.globl _TR2
	.globl _EXEN2
	.globl _EXF2
	.globl _TF2
	.globl _LEC0
	.globl _LEC1
	.globl _LEC2
	.globl _TXOK
	.globl _RXOK
	.globl _EPASS
	.globl _EWARN
	.globl _BOFF
	.globl _SMBTOE
	.globl _SMBFTE
	.globl _AA
	.globl _SI
	.globl _STO
	.globl _STA
	.globl _ENSMB
	.globl _BUSY
	.globl _PX0
	.globl _PT0
	.globl _PX1
	.globl _PT1
	.globl _PS0
	.globl _PT2
	.globl _EX0
	.globl _ET0
	.globl _EX1
	.globl _ET1
	.globl _ES0
	.globl _ET2
	.globl _EA
	.globl _RI1
	.globl _TI1
	.globl _RB81
	.globl _TB81
	.globl _REN1
	.globl _MCE1
	.globl _S1MODE
	.globl _RI0
	.globl _TI0
	.globl _RB80
	.globl _TB80
	.globl _REN0
	.globl _SM20
	.globl _SM10
	.globl _SM00
	.globl _CP2HYN0
	.globl _CP2HYN1
	.globl _CP2HYP0
	.globl _CP2HYP1
	.globl _CP2FIF
	.globl _CP2RIF
	.globl _CP2OUT
	.globl _CP2EN
	.globl _CP1HYN0
	.globl _CP1HYN1
	.globl _CP1HYP0
	.globl _CP1HYP1
	.globl _CP1FIF
	.globl _CP1RIF
	.globl _CP1OUT
	.globl _CP1EN
	.globl _CP0HYN0
	.globl _CP0HYN1
	.globl _CP0HYP0
	.globl _CP0HYP1
	.globl _CP0FIF
	.globl _CP0RIF
	.globl _CP0OUT
	.globl _CP0EN
	.globl _IT0
	.globl _IE0
	.globl _IT1
	.globl _IE1
	.globl _TR0
	.globl _TF0
	.globl _TR1
	.globl _TF1
	.globl __XPAGE
	.globl _DP
	.globl _ADC0
	.globl _ADC0LT
	.globl _ADC0GT
	.globl _TMR4
	.globl _TMR3
	.globl _TMR2
	.globl _RCAP4
	.globl _RCAP3
	.globl _RCAP2
	.globl _DAC1
	.globl _DAC0
	.globl _CAN0DAT
	.globl _PCA0CP5
	.globl _PCA0CP4
	.globl _PCA0CP3
	.globl _PCA0CP2
	.globl _PCA0CP1
	.globl _PCA0CP0
	.globl _PCA0
	.globl _WDTCN
	.globl _PCA0CPH1
	.globl _PCA0CPL1
	.globl _PCA0CPH0
	.globl _PCA0CPL0
	.globl _PCA0H
	.globl _PCA0L
	.globl _P7
	.globl _CAN0CN
	.globl _SPI0CN
	.globl _EIP2
	.globl _EIP1
	.globl _B
	.globl _RSTSRC
	.globl _PCA0CPH4
	.globl _PCA0CPL4
	.globl _PCA0CPH3
	.globl _PCA0CPL3
	.globl _PCA0CPH2
	.globl _PCA0CPL2
	.globl _P6
	.globl _ADC2CN
	.globl _ADC0CN
	.globl _EIE2
	.globl _EIE1
	.globl _XBR3
	.globl _XBR2
	.globl _XBR1
	.globl _PCA0CPH5
	.globl _XBR0
	.globl _PCA0CPL5
	.globl _ACC
	.globl _PCA0CPM5
	.globl _PCA0CPM4
	.globl _PCA0CPM3
	.globl _PCA0CPM2
	.globl _CAN0TST
	.globl _PCA0CPM1
	.globl _CAN0ADR
	.globl _PCA0CPM0
	.globl _CAN0DATH
	.globl _PCA0MD
	.globl _P5
	.globl _CAN0DATL
	.globl _PCA0CN
	.globl _HVA0CN
	.globl _DAC1CN
	.globl _DAC0CN
	.globl _DAC1H
	.globl _DAC0H
	.globl _DAC1L
	.globl _DAC0L
	.globl _REF0CN
	.globl _PSW
	.globl _SMB0CR
	.globl _TMR4H
	.globl _TMR3H
	.globl _TMR2H
	.globl _TMR4L
	.globl _TMR3L
	.globl _TMR2L
	.globl _RCAP4H
	.globl _RCAP3H
	.globl _RCAP2H
	.globl _RCAP4L
	.globl _RCAP3L
	.globl _RCAP2L
	.globl _TMR4CF
	.globl _TMR3CF
	.globl _TMR2CF
	.globl _P4
	.globl _TMR4CN
	.globl _TMR3CN
	.globl _TMR2CN
	.globl _ADC0LTH
	.globl _ADC2LT
	.globl _ADC0LTL
	.globl _ADC0GTH
	.globl _ADC2GT
	.globl _ADC0GTL
	.globl _SMB0ADR
	.globl _SMB0DAT
	.globl _SMB0STA
	.globl _CAN0STA
	.globl _SMB0CN
	.globl _ADC0H
	.globl _ADC2
	.globl _ADC0L
	.globl _ADC2CF
	.globl _ADC0CF
	.globl _AMX2SL
	.globl _AMX0SL
	.globl _AMX0CF
	.globl _AMX0PRT
	.globl _AMX2CF
	.globl _SADEN0
	.globl _IP
	.globl _FLACL
	.globl _FLSCL
	.globl _P3
	.globl _P3MDIN
	.globl _P2MDIN
	.globl _P1MDIN
	.globl _SADDR1
	.globl _SADDR0
	.globl _IE
	.globl _P3MDOUT
	.globl _P2MDOUT
	.globl _P1MDOUT
	.globl _P0MDOUT
	.globl _EMI0CF
	.globl _EMI0CN
	.globl _EMI0TC
	.globl _P2
	.globl _P7MDOUT
	.globl _P6MDOUT
	.globl _P5MDOUT
	.globl _SPI0CKR
	.globl _P4MDOUT
	.globl _SPI0DAT
	.globl _SPI0CFG
	.globl _SBUF1
	.globl _SBUF0
	.globl _SCON1
	.globl _SCON0
	.globl _CLKSEL
	.globl _SFRPGCN
	.globl _SSTA0
	.globl _P1
	.globl _PSCTL
	.globl _CKCON
	.globl _TH1
	.globl _OSCXCN
	.globl _TH0
	.globl _OSCICL
	.globl _TL1
	.globl _OSCICN
	.globl _TL0
	.globl _CPT2MD
	.globl _CPT1MD
	.globl _CPT0MD
	.globl _TMOD
	.globl _CPT2CN
	.globl _CPT1CN
	.globl _CPT0CN
	.globl _TCON
	.globl _PCON
	.globl _SFRLAST
	.globl _SFRNEXT
	.globl _SFRPAGE
	.globl _DPH
	.globl _DPL
	.globl _SP
	.globl _P0
	.globl _limpa_glcd_PARM_1
	.globl _conf_pag_PARM_2
	.globl _conf_Y_PARM_2
	.globl _esc_glcd_PARM_3
	.globl _esc_glcd_PARM_2
	.globl _le_glcd_PARM_2
	.globl _le_glcd_PARM_1
	.globl _sbufH
	.globl _byteH
	.globl _byteL
	.globl _putchar
;--------------------------------------------------------
; special function registers
;--------------------------------------------------------
	.area RSEG    (ABS,DATA)
	.org 0x0000
G$P0$0$0 == 0x0080
_P0	=	0x0080
G$SP$0$0 == 0x0081
_SP	=	0x0081
G$DPL$0$0 == 0x0082
_DPL	=	0x0082
G$DPH$0$0 == 0x0083
_DPH	=	0x0083
G$SFRPAGE$0$0 == 0x0084
_SFRPAGE	=	0x0084
G$SFRNEXT$0$0 == 0x0085
_SFRNEXT	=	0x0085
G$SFRLAST$0$0 == 0x0086
_SFRLAST	=	0x0086
G$PCON$0$0 == 0x0087
_PCON	=	0x0087
G$TCON$0$0 == 0x0088
_TCON	=	0x0088
G$CPT0CN$0$0 == 0x0088
_CPT0CN	=	0x0088
G$CPT1CN$0$0 == 0x0088
_CPT1CN	=	0x0088
G$CPT2CN$0$0 == 0x0088
_CPT2CN	=	0x0088
G$TMOD$0$0 == 0x0089
_TMOD	=	0x0089
G$CPT0MD$0$0 == 0x0089
_CPT0MD	=	0x0089
G$CPT1MD$0$0 == 0x0089
_CPT1MD	=	0x0089
G$CPT2MD$0$0 == 0x0089
_CPT2MD	=	0x0089
G$TL0$0$0 == 0x008a
_TL0	=	0x008a
G$OSCICN$0$0 == 0x008a
_OSCICN	=	0x008a
G$TL1$0$0 == 0x008b
_TL1	=	0x008b
G$OSCICL$0$0 == 0x008b
_OSCICL	=	0x008b
G$TH0$0$0 == 0x008c
_TH0	=	0x008c
G$OSCXCN$0$0 == 0x008c
_OSCXCN	=	0x008c
G$TH1$0$0 == 0x008d
_TH1	=	0x008d
G$CKCON$0$0 == 0x008e
_CKCON	=	0x008e
G$PSCTL$0$0 == 0x008f
_PSCTL	=	0x008f
G$P1$0$0 == 0x0090
_P1	=	0x0090
G$SSTA0$0$0 == 0x0091
_SSTA0	=	0x0091
G$SFRPGCN$0$0 == 0x0096
_SFRPGCN	=	0x0096
G$CLKSEL$0$0 == 0x0097
_CLKSEL	=	0x0097
G$SCON0$0$0 == 0x0098
_SCON0	=	0x0098
G$SCON1$0$0 == 0x0098
_SCON1	=	0x0098
G$SBUF0$0$0 == 0x0099
_SBUF0	=	0x0099
G$SBUF1$0$0 == 0x0099
_SBUF1	=	0x0099
G$SPI0CFG$0$0 == 0x009a
_SPI0CFG	=	0x009a
G$SPI0DAT$0$0 == 0x009b
_SPI0DAT	=	0x009b
G$P4MDOUT$0$0 == 0x009c
_P4MDOUT	=	0x009c
G$SPI0CKR$0$0 == 0x009d
_SPI0CKR	=	0x009d
G$P5MDOUT$0$0 == 0x009d
_P5MDOUT	=	0x009d
G$P6MDOUT$0$0 == 0x009e
_P6MDOUT	=	0x009e
G$P7MDOUT$0$0 == 0x009f
_P7MDOUT	=	0x009f
G$P2$0$0 == 0x00a0
_P2	=	0x00a0
G$EMI0TC$0$0 == 0x00a1
_EMI0TC	=	0x00a1
G$EMI0CN$0$0 == 0x00a2
_EMI0CN	=	0x00a2
G$EMI0CF$0$0 == 0x00a3
_EMI0CF	=	0x00a3
G$P0MDOUT$0$0 == 0x00a4
_P0MDOUT	=	0x00a4
G$P1MDOUT$0$0 == 0x00a5
_P1MDOUT	=	0x00a5
G$P2MDOUT$0$0 == 0x00a6
_P2MDOUT	=	0x00a6
G$P3MDOUT$0$0 == 0x00a7
_P3MDOUT	=	0x00a7
G$IE$0$0 == 0x00a8
_IE	=	0x00a8
G$SADDR0$0$0 == 0x00a9
_SADDR0	=	0x00a9
G$SADDR1$0$0 == 0x00a9
_SADDR1	=	0x00a9
G$P1MDIN$0$0 == 0x00ad
_P1MDIN	=	0x00ad
G$P2MDIN$0$0 == 0x00ae
_P2MDIN	=	0x00ae
G$P3MDIN$0$0 == 0x00af
_P3MDIN	=	0x00af
G$P3$0$0 == 0x00b0
_P3	=	0x00b0
G$FLSCL$0$0 == 0x00b7
_FLSCL	=	0x00b7
G$FLACL$0$0 == 0x00b7
_FLACL	=	0x00b7
G$IP$0$0 == 0x00b8
_IP	=	0x00b8
G$SADEN0$0$0 == 0x00b9
_SADEN0	=	0x00b9
G$AMX2CF$0$0 == 0x00ba
_AMX2CF	=	0x00ba
G$AMX0PRT$0$0 == 0x00bd
_AMX0PRT	=	0x00bd
G$AMX0CF$0$0 == 0x00ba
_AMX0CF	=	0x00ba
G$AMX0SL$0$0 == 0x00bb
_AMX0SL	=	0x00bb
G$AMX2SL$0$0 == 0x00bb
_AMX2SL	=	0x00bb
G$ADC0CF$0$0 == 0x00bc
_ADC0CF	=	0x00bc
G$ADC2CF$0$0 == 0x00bc
_ADC2CF	=	0x00bc
G$ADC0L$0$0 == 0x00be
_ADC0L	=	0x00be
G$ADC2$0$0 == 0x00be
_ADC2	=	0x00be
G$ADC0H$0$0 == 0x00bf
_ADC0H	=	0x00bf
G$SMB0CN$0$0 == 0x00c0
_SMB0CN	=	0x00c0
G$CAN0STA$0$0 == 0x00c0
_CAN0STA	=	0x00c0
G$SMB0STA$0$0 == 0x00c1
_SMB0STA	=	0x00c1
G$SMB0DAT$0$0 == 0x00c2
_SMB0DAT	=	0x00c2
G$SMB0ADR$0$0 == 0x00c3
_SMB0ADR	=	0x00c3
G$ADC0GTL$0$0 == 0x00c4
_ADC0GTL	=	0x00c4
G$ADC2GT$0$0 == 0x00c4
_ADC2GT	=	0x00c4
G$ADC0GTH$0$0 == 0x00c5
_ADC0GTH	=	0x00c5
G$ADC0LTL$0$0 == 0x00c6
_ADC0LTL	=	0x00c6
G$ADC2LT$0$0 == 0x00c6
_ADC2LT	=	0x00c6
G$ADC0LTH$0$0 == 0x00c7
_ADC0LTH	=	0x00c7
G$TMR2CN$0$0 == 0x00c8
_TMR2CN	=	0x00c8
G$TMR3CN$0$0 == 0x00c8
_TMR3CN	=	0x00c8
G$TMR4CN$0$0 == 0x00c8
_TMR4CN	=	0x00c8
G$P4$0$0 == 0x00c8
_P4	=	0x00c8
G$TMR2CF$0$0 == 0x00c9
_TMR2CF	=	0x00c9
G$TMR3CF$0$0 == 0x00c9
_TMR3CF	=	0x00c9
G$TMR4CF$0$0 == 0x00c9
_TMR4CF	=	0x00c9
G$RCAP2L$0$0 == 0x00ca
_RCAP2L	=	0x00ca
G$RCAP3L$0$0 == 0x00ca
_RCAP3L	=	0x00ca
G$RCAP4L$0$0 == 0x00ca
_RCAP4L	=	0x00ca
G$RCAP2H$0$0 == 0x00cb
_RCAP2H	=	0x00cb
G$RCAP3H$0$0 == 0x00cb
_RCAP3H	=	0x00cb
G$RCAP4H$0$0 == 0x00cb
_RCAP4H	=	0x00cb
G$TMR2L$0$0 == 0x00cc
_TMR2L	=	0x00cc
G$TMR3L$0$0 == 0x00cc
_TMR3L	=	0x00cc
G$TMR4L$0$0 == 0x00cc
_TMR4L	=	0x00cc
G$TMR2H$0$0 == 0x00cd
_TMR2H	=	0x00cd
G$TMR3H$0$0 == 0x00cd
_TMR3H	=	0x00cd
G$TMR4H$0$0 == 0x00cd
_TMR4H	=	0x00cd
G$SMB0CR$0$0 == 0x00cf
_SMB0CR	=	0x00cf
G$PSW$0$0 == 0x00d0
_PSW	=	0x00d0
G$REF0CN$0$0 == 0x00d1
_REF0CN	=	0x00d1
G$DAC0L$0$0 == 0x00d2
_DAC0L	=	0x00d2
G$DAC1L$0$0 == 0x00d2
_DAC1L	=	0x00d2
G$DAC0H$0$0 == 0x00d3
_DAC0H	=	0x00d3
G$DAC1H$0$0 == 0x00d3
_DAC1H	=	0x00d3
G$DAC0CN$0$0 == 0x00d4
_DAC0CN	=	0x00d4
G$DAC1CN$0$0 == 0x00d4
_DAC1CN	=	0x00d4
G$HVA0CN$0$0 == 0x00d6
_HVA0CN	=	0x00d6
G$PCA0CN$0$0 == 0x00d8
_PCA0CN	=	0x00d8
G$CAN0DATL$0$0 == 0x00d8
_CAN0DATL	=	0x00d8
G$P5$0$0 == 0x00d8
_P5	=	0x00d8
G$PCA0MD$0$0 == 0x00d9
_PCA0MD	=	0x00d9
G$CAN0DATH$0$0 == 0x00d9
_CAN0DATH	=	0x00d9
G$PCA0CPM0$0$0 == 0x00da
_PCA0CPM0	=	0x00da
G$CAN0ADR$0$0 == 0x00da
_CAN0ADR	=	0x00da
G$PCA0CPM1$0$0 == 0x00db
_PCA0CPM1	=	0x00db
G$CAN0TST$0$0 == 0x00db
_CAN0TST	=	0x00db
G$PCA0CPM2$0$0 == 0x00dc
_PCA0CPM2	=	0x00dc
G$PCA0CPM3$0$0 == 0x00dd
_PCA0CPM3	=	0x00dd
G$PCA0CPM4$0$0 == 0x00de
_PCA0CPM4	=	0x00de
G$PCA0CPM5$0$0 == 0x00df
_PCA0CPM5	=	0x00df
G$ACC$0$0 == 0x00e0
_ACC	=	0x00e0
G$PCA0CPL5$0$0 == 0x00e1
_PCA0CPL5	=	0x00e1
G$XBR0$0$0 == 0x00e1
_XBR0	=	0x00e1
G$PCA0CPH5$0$0 == 0x00e2
_PCA0CPH5	=	0x00e2
G$XBR1$0$0 == 0x00e2
_XBR1	=	0x00e2
G$XBR2$0$0 == 0x00e3
_XBR2	=	0x00e3
G$XBR3$0$0 == 0x00e4
_XBR3	=	0x00e4
G$EIE1$0$0 == 0x00e6
_EIE1	=	0x00e6
G$EIE2$0$0 == 0x00e7
_EIE2	=	0x00e7
G$ADC0CN$0$0 == 0x00e8
_ADC0CN	=	0x00e8
G$ADC2CN$0$0 == 0x00e8
_ADC2CN	=	0x00e8
G$P6$0$0 == 0x00e8
_P6	=	0x00e8
G$PCA0CPL2$0$0 == 0x00e9
_PCA0CPL2	=	0x00e9
G$PCA0CPH2$0$0 == 0x00ea
_PCA0CPH2	=	0x00ea
G$PCA0CPL3$0$0 == 0x00eb
_PCA0CPL3	=	0x00eb
G$PCA0CPH3$0$0 == 0x00ec
_PCA0CPH3	=	0x00ec
G$PCA0CPL4$0$0 == 0x00ed
_PCA0CPL4	=	0x00ed
G$PCA0CPH4$0$0 == 0x00ee
_PCA0CPH4	=	0x00ee
G$RSTSRC$0$0 == 0x00ef
_RSTSRC	=	0x00ef
G$B$0$0 == 0x00f0
_B	=	0x00f0
G$EIP1$0$0 == 0x00f6
_EIP1	=	0x00f6
G$EIP2$0$0 == 0x00f7
_EIP2	=	0x00f7
G$SPI0CN$0$0 == 0x00f8
_SPI0CN	=	0x00f8
G$CAN0CN$0$0 == 0x00f8
_CAN0CN	=	0x00f8
G$P7$0$0 == 0x00f8
_P7	=	0x00f8
G$PCA0L$0$0 == 0x00f9
_PCA0L	=	0x00f9
G$PCA0H$0$0 == 0x00fa
_PCA0H	=	0x00fa
G$PCA0CPL0$0$0 == 0x00fb
_PCA0CPL0	=	0x00fb
G$PCA0CPH0$0$0 == 0x00fc
_PCA0CPH0	=	0x00fc
G$PCA0CPL1$0$0 == 0x00fd
_PCA0CPL1	=	0x00fd
G$PCA0CPH1$0$0 == 0x00fe
_PCA0CPH1	=	0x00fe
G$WDTCN$0$0 == 0x00ff
_WDTCN	=	0x00ff
G$PCA0$0$0 == 0xfaf9
_PCA0	=	0xfaf9
G$PCA0CP0$0$0 == 0xfcfb
_PCA0CP0	=	0xfcfb
G$PCA0CP1$0$0 == 0xfefd
_PCA0CP1	=	0xfefd
G$PCA0CP2$0$0 == 0xeae9
_PCA0CP2	=	0xeae9
G$PCA0CP3$0$0 == 0xeceb
_PCA0CP3	=	0xeceb
G$PCA0CP4$0$0 == 0xeeed
_PCA0CP4	=	0xeeed
G$PCA0CP5$0$0 == 0xe2e1
_PCA0CP5	=	0xe2e1
G$CAN0DAT$0$0 == 0xd9d8
_CAN0DAT	=	0xd9d8
G$DAC0$0$0 == 0xd3d2
_DAC0	=	0xd3d2
G$DAC1$0$0 == 0xd3d2
_DAC1	=	0xd3d2
G$RCAP2$0$0 == 0xcbca
_RCAP2	=	0xcbca
G$RCAP3$0$0 == 0xcbca
_RCAP3	=	0xcbca
G$RCAP4$0$0 == 0xcbca
_RCAP4	=	0xcbca
G$TMR2$0$0 == 0xcdcc
_TMR2	=	0xcdcc
G$TMR3$0$0 == 0xcdcc
_TMR3	=	0xcdcc
G$TMR4$0$0 == 0xcdcc
_TMR4	=	0xcdcc
G$ADC0GT$0$0 == 0xc5c4
_ADC0GT	=	0xc5c4
G$ADC0LT$0$0 == 0xc7c6
_ADC0LT	=	0xc7c6
G$ADC0$0$0 == 0xbfbe
_ADC0	=	0xbfbe
G$DP$0$0 == 0x8382
_DP	=	0x8382
G$_XPAGE$0$0 == 0x00a2
__XPAGE	=	0x00a2
;--------------------------------------------------------
; special function bits
;--------------------------------------------------------
	.area RSEG    (ABS,DATA)
	.org 0x0000
G$TF1$0$0 == 0x008f
_TF1	=	0x008f
G$TR1$0$0 == 0x008e
_TR1	=	0x008e
G$TF0$0$0 == 0x008d
_TF0	=	0x008d
G$TR0$0$0 == 0x008c
_TR0	=	0x008c
G$IE1$0$0 == 0x008b
_IE1	=	0x008b
G$IT1$0$0 == 0x008a
_IT1	=	0x008a
G$IE0$0$0 == 0x0089
_IE0	=	0x0089
G$IT0$0$0 == 0x0088
_IT0	=	0x0088
G$CP0EN$0$0 == 0x008f
_CP0EN	=	0x008f
G$CP0OUT$0$0 == 0x008e
_CP0OUT	=	0x008e
G$CP0RIF$0$0 == 0x008d
_CP0RIF	=	0x008d
G$CP0FIF$0$0 == 0x008c
_CP0FIF	=	0x008c
G$CP0HYP1$0$0 == 0x008b
_CP0HYP1	=	0x008b
G$CP0HYP0$0$0 == 0x008a
_CP0HYP0	=	0x008a
G$CP0HYN1$0$0 == 0x0089
_CP0HYN1	=	0x0089
G$CP0HYN0$0$0 == 0x0088
_CP0HYN0	=	0x0088
G$CP1EN$0$0 == 0x008f
_CP1EN	=	0x008f
G$CP1OUT$0$0 == 0x008e
_CP1OUT	=	0x008e
G$CP1RIF$0$0 == 0x008d
_CP1RIF	=	0x008d
G$CP1FIF$0$0 == 0x008c
_CP1FIF	=	0x008c
G$CP1HYP1$0$0 == 0x008b
_CP1HYP1	=	0x008b
G$CP1HYP0$0$0 == 0x008a
_CP1HYP0	=	0x008a
G$CP1HYN1$0$0 == 0x0089
_CP1HYN1	=	0x0089
G$CP1HYN0$0$0 == 0x0088
_CP1HYN0	=	0x0088
G$CP2EN$0$0 == 0x008f
_CP2EN	=	0x008f
G$CP2OUT$0$0 == 0x008e
_CP2OUT	=	0x008e
G$CP2RIF$0$0 == 0x008d
_CP2RIF	=	0x008d
G$CP2FIF$0$0 == 0x008c
_CP2FIF	=	0x008c
G$CP2HYP1$0$0 == 0x008b
_CP2HYP1	=	0x008b
G$CP2HYP0$0$0 == 0x008a
_CP2HYP0	=	0x008a
G$CP2HYN1$0$0 == 0x0089
_CP2HYN1	=	0x0089
G$CP2HYN0$0$0 == 0x0088
_CP2HYN0	=	0x0088
G$SM00$0$0 == 0x009f
_SM00	=	0x009f
G$SM10$0$0 == 0x009e
_SM10	=	0x009e
G$SM20$0$0 == 0x009d
_SM20	=	0x009d
G$REN0$0$0 == 0x009c
_REN0	=	0x009c
G$TB80$0$0 == 0x009b
_TB80	=	0x009b
G$RB80$0$0 == 0x009a
_RB80	=	0x009a
G$TI0$0$0 == 0x0099
_TI0	=	0x0099
G$RI0$0$0 == 0x0098
_RI0	=	0x0098
G$S1MODE$0$0 == 0x009f
_S1MODE	=	0x009f
G$MCE1$0$0 == 0x009d
_MCE1	=	0x009d
G$REN1$0$0 == 0x009c
_REN1	=	0x009c
G$TB81$0$0 == 0x009b
_TB81	=	0x009b
G$RB81$0$0 == 0x009a
_RB81	=	0x009a
G$TI1$0$0 == 0x0099
_TI1	=	0x0099
G$RI1$0$0 == 0x0098
_RI1	=	0x0098
G$EA$0$0 == 0x00af
_EA	=	0x00af
G$ET2$0$0 == 0x00ad
_ET2	=	0x00ad
G$ES0$0$0 == 0x00ac
_ES0	=	0x00ac
G$ET1$0$0 == 0x00ab
_ET1	=	0x00ab
G$EX1$0$0 == 0x00aa
_EX1	=	0x00aa
G$ET0$0$0 == 0x00a9
_ET0	=	0x00a9
G$EX0$0$0 == 0x00a8
_EX0	=	0x00a8
G$PT2$0$0 == 0x00bd
_PT2	=	0x00bd
G$PS0$0$0 == 0x00bc
_PS0	=	0x00bc
G$PT1$0$0 == 0x00bb
_PT1	=	0x00bb
G$PX1$0$0 == 0x00ba
_PX1	=	0x00ba
G$PT0$0$0 == 0x00b9
_PT0	=	0x00b9
G$PX0$0$0 == 0x00b8
_PX0	=	0x00b8
G$BUSY$0$0 == 0x00c7
_BUSY	=	0x00c7
G$ENSMB$0$0 == 0x00c6
_ENSMB	=	0x00c6
G$STA$0$0 == 0x00c5
_STA	=	0x00c5
G$STO$0$0 == 0x00c4
_STO	=	0x00c4
G$SI$0$0 == 0x00c3
_SI	=	0x00c3
G$AA$0$0 == 0x00c2
_AA	=	0x00c2
G$SMBFTE$0$0 == 0x00c1
_SMBFTE	=	0x00c1
G$SMBTOE$0$0 == 0x00c0
_SMBTOE	=	0x00c0
G$BOFF$0$0 == 0x00c7
_BOFF	=	0x00c7
G$EWARN$0$0 == 0x00c6
_EWARN	=	0x00c6
G$EPASS$0$0 == 0x00c5
_EPASS	=	0x00c5
G$RXOK$0$0 == 0x00c4
_RXOK	=	0x00c4
G$TXOK$0$0 == 0x00c3
_TXOK	=	0x00c3
G$LEC2$0$0 == 0x00c2
_LEC2	=	0x00c2
G$LEC1$0$0 == 0x00c1
_LEC1	=	0x00c1
G$LEC0$0$0 == 0x00c0
_LEC0	=	0x00c0
G$TF2$0$0 == 0x00cf
_TF2	=	0x00cf
G$EXF2$0$0 == 0x00ce
_EXF2	=	0x00ce
G$EXEN2$0$0 == 0x00cb
_EXEN2	=	0x00cb
G$TR2$0$0 == 0x00ca
_TR2	=	0x00ca
G$CT2$0$0 == 0x00c9
_CT2	=	0x00c9
G$CPRL2$0$0 == 0x00c8
_CPRL2	=	0x00c8
G$TF3$0$0 == 0x00cf
_TF3	=	0x00cf
G$EXF3$0$0 == 0x00ce
_EXF3	=	0x00ce
G$EXEN3$0$0 == 0x00cb
_EXEN3	=	0x00cb
G$TR3$0$0 == 0x00ca
_TR3	=	0x00ca
G$CT3$0$0 == 0x00c9
_CT3	=	0x00c9
G$CPRL3$0$0 == 0x00c8
_CPRL3	=	0x00c8
G$TF4$0$0 == 0x00cf
_TF4	=	0x00cf
G$EXF4$0$0 == 0x00ce
_EXF4	=	0x00ce
G$EXEN4$0$0 == 0x00cb
_EXEN4	=	0x00cb
G$TR4$0$0 == 0x00ca
_TR4	=	0x00ca
G$CT4$0$0 == 0x00c9
_CT4	=	0x00c9
G$CPRL4$0$0 == 0x00c8
_CPRL4	=	0x00c8
G$CY$0$0 == 0x00d7
_CY	=	0x00d7
G$AC$0$0 == 0x00d6
_AC	=	0x00d6
G$F0$0$0 == 0x00d5
_F0	=	0x00d5
G$RS1$0$0 == 0x00d4
_RS1	=	0x00d4
G$RS0$0$0 == 0x00d3
_RS0	=	0x00d3
G$OV$0$0 == 0x00d2
_OV	=	0x00d2
G$F1$0$0 == 0x00d1
_F1	=	0x00d1
G$P$0$0 == 0x00d0
_P	=	0x00d0
G$CF$0$0 == 0x00df
_CF	=	0x00df
G$CR$0$0 == 0x00de
_CR	=	0x00de
G$CCF5$0$0 == 0x00dd
_CCF5	=	0x00dd
G$CCF4$0$0 == 0x00dc
_CCF4	=	0x00dc
G$CCF3$0$0 == 0x00db
_CCF3	=	0x00db
G$CCF2$0$0 == 0x00da
_CCF2	=	0x00da
G$CCF1$0$0 == 0x00d9
_CCF1	=	0x00d9
G$CCF0$0$0 == 0x00d8
_CCF0	=	0x00d8
G$AD0EN$0$0 == 0x00ef
_AD0EN	=	0x00ef
G$AD0TM$0$0 == 0x00ee
_AD0TM	=	0x00ee
G$AD0INT$0$0 == 0x00ed
_AD0INT	=	0x00ed
G$AD0BUSY$0$0 == 0x00ec
_AD0BUSY	=	0x00ec
G$AD0CM1$0$0 == 0x00eb
_AD0CM1	=	0x00eb
G$AD0CM0$0$0 == 0x00ea
_AD0CM0	=	0x00ea
G$AD0WINT$0$0 == 0x00e9
_AD0WINT	=	0x00e9
G$AD0LJST$0$0 == 0x00e8
_AD0LJST	=	0x00e8
G$AD2EN$0$0 == 0x00ef
_AD2EN	=	0x00ef
G$AD2TM$0$0 == 0x00ee
_AD2TM	=	0x00ee
G$AD2INT$0$0 == 0x00ed
_AD2INT	=	0x00ed
G$AD2BUSY$0$0 == 0x00ec
_AD2BUSY	=	0x00ec
G$AD2CM2$0$0 == 0x00eb
_AD2CM2	=	0x00eb
G$AD2CM1$0$0 == 0x00ea
_AD2CM1	=	0x00ea
G$AD2CM0$0$0 == 0x00e9
_AD2CM0	=	0x00e9
G$AD2WINT$0$0 == 0x00e8
_AD2WINT	=	0x00e8
G$SPIF$0$0 == 0x00ff
_SPIF	=	0x00ff
G$WCOL$0$0 == 0x00fe
_WCOL	=	0x00fe
G$MODF$0$0 == 0x00fd
_MODF	=	0x00fd
G$RXOVRN$0$0 == 0x00fc
_RXOVRN	=	0x00fc
G$NSSMD1$0$0 == 0x00fb
_NSSMD1	=	0x00fb
G$NSSMD0$0$0 == 0x00fa
_NSSMD0	=	0x00fa
G$TXBMT$0$0 == 0x00f9
_TXBMT	=	0x00f9
G$SPIEN$0$0 == 0x00f8
_SPIEN	=	0x00f8
G$CANINIT$0$0 == 0x00f8
_CANINIT	=	0x00f8
G$CANIE$0$0 == 0x00f9
_CANIE	=	0x00f9
G$CANSIE$0$0 == 0x00fa
_CANSIE	=	0x00fa
G$CANEIE$0$0 == 0x00fb
_CANEIE	=	0x00fb
G$CANIF$0$0 == 0x00fc
_CANIF	=	0x00fc
G$CANDAR$0$0 == 0x00fd
_CANDAR	=	0x00fd
G$CANCCE$0$0 == 0x00fe
_CANCCE	=	0x00fe
G$CANTEST$0$0 == 0x00ff
_CANTEST	=	0x00ff
G$P0_0$0$0 == 0x0080
_P0_0	=	0x0080
G$P0_1$0$0 == 0x0081
_P0_1	=	0x0081
G$P0_2$0$0 == 0x0082
_P0_2	=	0x0082
G$P0_3$0$0 == 0x0083
_P0_3	=	0x0083
G$P0_4$0$0 == 0x0084
_P0_4	=	0x0084
G$P0_5$0$0 == 0x0085
_P0_5	=	0x0085
G$P0_6$0$0 == 0x0086
_P0_6	=	0x0086
G$P0_7$0$0 == 0x0087
_P0_7	=	0x0087
G$P1_0$0$0 == 0x0090
_P1_0	=	0x0090
G$P1_1$0$0 == 0x0091
_P1_1	=	0x0091
G$P1_2$0$0 == 0x0092
_P1_2	=	0x0092
G$P1_3$0$0 == 0x0093
_P1_3	=	0x0093
G$P1_4$0$0 == 0x0094
_P1_4	=	0x0094
G$P1_5$0$0 == 0x0095
_P1_5	=	0x0095
G$P1_6$0$0 == 0x0096
_P1_6	=	0x0096
G$P1_7$0$0 == 0x0097
_P1_7	=	0x0097
G$P2_0$0$0 == 0x00a0
_P2_0	=	0x00a0
G$P2_1$0$0 == 0x00a1
_P2_1	=	0x00a1
G$P2_2$0$0 == 0x00a2
_P2_2	=	0x00a2
G$P2_3$0$0 == 0x00a3
_P2_3	=	0x00a3
G$P2_4$0$0 == 0x00a4
_P2_4	=	0x00a4
G$P2_5$0$0 == 0x00a5
_P2_5	=	0x00a5
G$P2_6$0$0 == 0x00a6
_P2_6	=	0x00a6
G$P2_7$0$0 == 0x00a7
_P2_7	=	0x00a7
G$P3_0$0$0 == 0x00b0
_P3_0	=	0x00b0
G$P3_1$0$0 == 0x00b1
_P3_1	=	0x00b1
G$P3_2$0$0 == 0x00b2
_P3_2	=	0x00b2
G$P3_3$0$0 == 0x00b3
_P3_3	=	0x00b3
G$P3_4$0$0 == 0x00b4
_P3_4	=	0x00b4
G$P3_5$0$0 == 0x00b5
_P3_5	=	0x00b5
G$P3_6$0$0 == 0x00b6
_P3_6	=	0x00b6
G$P3_7$0$0 == 0x00b7
_P3_7	=	0x00b7
G$P4_0$0$0 == 0x00c8
_P4_0	=	0x00c8
G$P4_1$0$0 == 0x00c9
_P4_1	=	0x00c9
G$P4_2$0$0 == 0x00ca
_P4_2	=	0x00ca
G$P4_3$0$0 == 0x00cb
_P4_3	=	0x00cb
G$P4_4$0$0 == 0x00cc
_P4_4	=	0x00cc
G$P4_5$0$0 == 0x00cd
_P4_5	=	0x00cd
G$P4_6$0$0 == 0x00ce
_P4_6	=	0x00ce
G$P4_7$0$0 == 0x00cf
_P4_7	=	0x00cf
G$P5_0$0$0 == 0x00d8
_P5_0	=	0x00d8
G$P5_1$0$0 == 0x00d9
_P5_1	=	0x00d9
G$P5_2$0$0 == 0x00da
_P5_2	=	0x00da
G$P5_3$0$0 == 0x00db
_P5_3	=	0x00db
G$P5_4$0$0 == 0x00dc
_P5_4	=	0x00dc
G$P5_5$0$0 == 0x00dd
_P5_5	=	0x00dd
G$P5_6$0$0 == 0x00de
_P5_6	=	0x00de
G$P5_7$0$0 == 0x00df
_P5_7	=	0x00df
G$P6_0$0$0 == 0x00e8
_P6_0	=	0x00e8
G$P6_1$0$0 == 0x00e9
_P6_1	=	0x00e9
G$P6_2$0$0 == 0x00ea
_P6_2	=	0x00ea
G$P6_3$0$0 == 0x00eb
_P6_3	=	0x00eb
G$P6_4$0$0 == 0x00ec
_P6_4	=	0x00ec
G$P6_5$0$0 == 0x00ed
_P6_5	=	0x00ed
G$P6_6$0$0 == 0x00ee
_P6_6	=	0x00ee
G$P6_7$0$0 == 0x00ef
_P6_7	=	0x00ef
G$P7_0$0$0 == 0x00f8
_P7_0	=	0x00f8
G$P7_1$0$0 == 0x00f9
_P7_1	=	0x00f9
G$P7_2$0$0 == 0x00fa
_P7_2	=	0x00fa
G$P7_3$0$0 == 0x00fb
_P7_3	=	0x00fb
G$P7_4$0$0 == 0x00fc
_P7_4	=	0x00fc
G$P7_5$0$0 == 0x00fd
_P7_5	=	0x00fd
G$P7_6$0$0 == 0x00fe
_P7_6	=	0x00fe
G$P7_7$0$0 == 0x00ff
_P7_7	=	0x00ff
;--------------------------------------------------------
; overlayable register banks
;--------------------------------------------------------
	.area REG_BANK_0	(REL,OVR,DATA)
	.ds 8
;--------------------------------------------------------
; internal ram data
;--------------------------------------------------------
	.area DSEG    (DATA)
Fmain$carac_esc$0$0==.
_carac_esc:
	.ds 2
Fmain$pag_esc$0$0==.
_pag_esc:
	.ds 2
G$byteL$0$0==.
_byteL::
	.ds 1
G$byteH$0$0==.
_byteH::
	.ds 1
G$sbufH$0$0==.
_sbufH::
	.ds 1
;--------------------------------------------------------
; overlayable items in internal ram 
;--------------------------------------------------------
	.area	OSEG    (OVR,DATA)
	.area	OSEG    (OVR,DATA)
	.area	OSEG    (OVR,DATA)
;--------------------------------------------------------
; Stack segment in internal ram 
;--------------------------------------------------------
	.area	SSEG
__start__stack:
	.ds	1

;--------------------------------------------------------
; indirectly addressable internal ram data
;--------------------------------------------------------
	.area ISEG    (DATA)
;--------------------------------------------------------
; absolute internal ram data
;--------------------------------------------------------
	.area IABS    (ABS,DATA)
	.area IABS    (ABS,DATA)
;--------------------------------------------------------
; bit data
;--------------------------------------------------------
	.area BSEG    (BIT)
Lmain.le_glcd$cd$1$22==.
_le_glcd_PARM_1:
	.ds 1
Lmain.le_glcd$cs$1$22==.
_le_glcd_PARM_2:
	.ds 1
Lmain.esc_glcd$cd$1$24==.
_esc_glcd_PARM_2:
	.ds 1
Lmain.esc_glcd$cs$1$24==.
_esc_glcd_PARM_3:
	.ds 1
Lmain.conf_Y$cs$1$26==.
_conf_Y_PARM_2:
	.ds 1
Lmain.conf_pag$cs$1$28==.
_conf_pag_PARM_2:
	.ds 1
Lmain.limpa_glcd$cs$1$30==.
_limpa_glcd_PARM_1:
	.ds 1
Lmain.putchar$lado$1$39==.
_putchar_lado_1_39:
	.ds 1
;--------------------------------------------------------
; paged external ram data
;--------------------------------------------------------
	.area PSEG    (PAG,XDATA)
;--------------------------------------------------------
; external ram data
;--------------------------------------------------------
	.area XSEG    (XDATA)
;--------------------------------------------------------
; absolute external ram data
;--------------------------------------------------------
	.area XABS    (ABS,XDATA)
;--------------------------------------------------------
; external initialized ram data
;--------------------------------------------------------
	.area XISEG   (XDATA)
	.area HOME    (CODE)
	.area GSINIT0 (CODE)
	.area GSINIT1 (CODE)
	.area GSINIT2 (CODE)
	.area GSINIT3 (CODE)
	.area GSINIT4 (CODE)
	.area GSINIT5 (CODE)
	.area GSINIT  (CODE)
	.area GSFINAL (CODE)
	.area CSEG    (CODE)
;--------------------------------------------------------
; interrupt vector 
;--------------------------------------------------------
	.area HOME    (CODE)
__interrupt_vect:
	ljmp	__sdcc_gsinit_startup
	reti
	.ds	7
	reti
	.ds	7
	reti
	.ds	7
	reti
	.ds	7
	ljmp	_UART_Int
	.ds	5
	ljmp	_Timer2_Int
	.ds	5
	reti
	.ds	7
	reti
	.ds	7
	reti
	.ds	7
	reti
	.ds	7
	reti
	.ds	7
	reti
	.ds	7
	reti
	.ds	7
	reti
	.ds	7
	reti
	.ds	7
	reti
	.ds	7
	ljmp	_WatchDog_Int
;--------------------------------------------------------
; global & static initialisations
;--------------------------------------------------------
	.area HOME    (CODE)
	.area GSINIT  (CODE)
	.area GSFINAL (CODE)
	.area GSINIT  (CODE)
	.globl __sdcc_gsinit_startup
	.globl __sdcc_program_startup
	.globl __start__stack
	.globl __mcs51_genXINIT
	.globl __mcs51_genXRAMCLEAR
	.globl __mcs51_genRAMCLEAR
	.area GSFINAL (CODE)
	ljmp	__sdcc_program_startup
;--------------------------------------------------------
; Home
;--------------------------------------------------------
	.area HOME    (CODE)
	.area HOME    (CODE)
__sdcc_program_startup:
	ljmp	_main
;	return from main will return to caller
;--------------------------------------------------------
; code
;--------------------------------------------------------
	.area CSEG    (CODE)
;------------------------------------------------------------
;Allocation info for local variables in function 'Timer_Init'
;------------------------------------------------------------
	G$Timer_Init$0$0 ==.
	C$config.c$10$0$0 ==.
;	Z:\micap\trabalho\receiver\/..\/receiver\config.c:10: void Timer_Init()
;	-----------------------------------------
;	 function Timer_Init
;	-----------------------------------------
_Timer_Init:
	ar7 = 0x07
	ar6 = 0x06
	ar5 = 0x05
	ar4 = 0x04
	ar3 = 0x03
	ar2 = 0x02
	ar1 = 0x01
	ar0 = 0x00
	C$config.c$12$1$1 ==.
;	Z:\micap\trabalho\receiver\/..\/receiver\config.c:12: SFRPAGE   = TIMER01_PAGE;
	mov	_SFRPAGE,#0x00
	C$config.c$13$1$1 ==.
;	Z:\micap\trabalho\receiver\/..\/receiver\config.c:13: TCON      = 0x01;
	mov	_TCON,#0x01
	C$config.c$14$1$1 ==.
;	Z:\micap\trabalho\receiver\/..\/receiver\config.c:14: TMOD      = 0x21;
	mov	_TMOD,#0x21
	C$config.c$15$1$1 ==.
;	Z:\micap\trabalho\receiver\/..\/receiver\config.c:15: CKCON     = 0x0A;
	mov	_CKCON,#0x0a
	C$config.c$16$1$1 ==.
;	Z:\micap\trabalho\receiver\/..\/receiver\config.c:16: TL1       = 0xB6;
	mov	_TL1,#0xb6
	C$config.c$17$1$1 ==.
;	Z:\micap\trabalho\receiver\/..\/receiver\config.c:17: TH1       = 0xFB;
	mov	_TH1,#0xfb
	C$config.c$18$1$1 ==.
;	Z:\micap\trabalho\receiver\/..\/receiver\config.c:18: SFRPAGE   = TMR2_PAGE;
	mov	_SFRPAGE,#0x00
	C$config.c$19$1$1 ==.
;	Z:\micap\trabalho\receiver\/..\/receiver\config.c:19: TMR2CN    = 0x04;
	mov	_TMR2CN,#0x04
	C$config.c$20$1$1 ==.
;	Z:\micap\trabalho\receiver\/..\/receiver\config.c:20: TMR2CF    = 0x0A;
	mov	_TMR2CF,#0x0a
	C$config.c$21$1$1 ==.
;	Z:\micap\trabalho\receiver\/..\/receiver\config.c:21: RCAP2L    = 0xF8;
	mov	_RCAP2L,#0xf8
	C$config.c$22$1$1 ==.
;	Z:\micap\trabalho\receiver\/..\/receiver\config.c:22: RCAP2H    = 0xFF;
	mov	_RCAP2H,#0xff
	C$config.c$23$1$1 ==.
;	Z:\micap\trabalho\receiver\/..\/receiver\config.c:23: TMR2L     = 0xF8;
	mov	_TMR2L,#0xf8
	C$config.c$24$1$1 ==.
;	Z:\micap\trabalho\receiver\/..\/receiver\config.c:24: TMR2H     = 0xFF;
	mov	_TMR2H,#0xff
	C$config.c$25$1$1 ==.
;	Z:\micap\trabalho\receiver\/..\/receiver\config.c:25: SFRPAGE   = TMR3_PAGE;
	mov	_SFRPAGE,#0x01
	C$config.c$26$1$1 ==.
;	Z:\micap\trabalho\receiver\/..\/receiver\config.c:26: TMR3CN    = 0x04;
	mov	_TMR3CN,#0x04
	C$config.c$27$1$1 ==.
;	Z:\micap\trabalho\receiver\/..\/receiver\config.c:27: TMR3CF    = 0x0A;
	mov	_TMR3CF,#0x0a
	C$config.c$28$1$1 ==.
;	Z:\micap\trabalho\receiver\/..\/receiver\config.c:28: RCAP3L    = 0xF3;
	mov	_RCAP3L,#0xf3
	C$config.c$29$1$1 ==.
;	Z:\micap\trabalho\receiver\/..\/receiver\config.c:29: RCAP3H    = 0xFC;
	mov	_RCAP3H,#0xfc
	C$config.c$30$1$1 ==.
;	Z:\micap\trabalho\receiver\/..\/receiver\config.c:30: TMR3L     = 0xF3;
	mov	_TMR3L,#0xf3
	C$config.c$31$1$1 ==.
;	Z:\micap\trabalho\receiver\/..\/receiver\config.c:31: TMR3H     = 0xFC;
	mov	_TMR3H,#0xfc
	C$config.c$32$1$1 ==.
;	Z:\micap\trabalho\receiver\/..\/receiver\config.c:32: SFRPAGE   = TMR4_PAGE;
	mov	_SFRPAGE,#0x02
	C$config.c$33$1$1 ==.
;	Z:\micap\trabalho\receiver\/..\/receiver\config.c:33: TMR4CN    = 0x04;
	mov	_TMR4CN,#0x04
	C$config.c$34$1$1 ==.
;	Z:\micap\trabalho\receiver\/..\/receiver\config.c:34: TMR4CF    = 0x02;
	mov	_TMR4CF,#0x02
	C$config.c$35$1$1 ==.
;	Z:\micap\trabalho\receiver\/..\/receiver\config.c:35: RCAP4L    = 0x3D;
	mov	_RCAP4L,#0x3d
	C$config.c$36$1$1 ==.
;	Z:\micap\trabalho\receiver\/..\/receiver\config.c:36: RCAP4H    = 0x5D;
	mov	_RCAP4H,#0x5d
	C$config.c$37$1$1 ==.
;	Z:\micap\trabalho\receiver\/..\/receiver\config.c:37: TMR4L     = 0x3D;
	mov	_TMR4L,#0x3d
	C$config.c$38$1$1 ==.
;	Z:\micap\trabalho\receiver\/..\/receiver\config.c:38: TMR4H     = 0x5D;
	mov	_TMR4H,#0x5d
	C$config.c$39$1$1 ==.
	XG$Timer_Init$0$0 ==.
	ret
;------------------------------------------------------------
;Allocation info for local variables in function 'UART_Init'
;------------------------------------------------------------
	G$UART_Init$0$0 ==.
	C$config.c$41$1$1 ==.
;	Z:\micap\trabalho\receiver\/..\/receiver\config.c:41: void UART_Init()
;	-----------------------------------------
;	 function UART_Init
;	-----------------------------------------
_UART_Init:
	C$config.c$43$1$2 ==.
;	Z:\micap\trabalho\receiver\/..\/receiver\config.c:43: SFRPAGE   = UART0_PAGE;
	mov	_SFRPAGE,#0x00
	C$config.c$44$1$2 ==.
;	Z:\micap\trabalho\receiver\/..\/receiver\config.c:44: SCON0     = 0x70;
	mov	_SCON0,#0x70
	C$config.c$45$1$2 ==.
;	Z:\micap\trabalho\receiver\/..\/receiver\config.c:45: SSTA0     = 0x05;
	mov	_SSTA0,#0x05
	C$config.c$46$1$2 ==.
	XG$UART_Init$0$0 ==.
	ret
;------------------------------------------------------------
;Allocation info for local variables in function 'SMBus_Init'
;------------------------------------------------------------
	G$SMBus_Init$0$0 ==.
	C$config.c$48$1$2 ==.
;	Z:\micap\trabalho\receiver\/..\/receiver\config.c:48: void SMBus_Init()
;	-----------------------------------------
;	 function SMBus_Init
;	-----------------------------------------
_SMBus_Init:
	C$config.c$50$1$3 ==.
;	Z:\micap\trabalho\receiver\/..\/receiver\config.c:50: SFRPAGE   = SMB0_PAGE;
	mov	_SFRPAGE,#0x00
	C$config.c$51$1$3 ==.
;	Z:\micap\trabalho\receiver\/..\/receiver\config.c:51: SMB0CR    = 0xE9;
	mov	_SMB0CR,#0xe9
	C$config.c$52$1$3 ==.
	XG$SMBus_Init$0$0 ==.
	ret
;------------------------------------------------------------
;Allocation info for local variables in function 'SPI_Init'
;------------------------------------------------------------
	G$SPI_Init$0$0 ==.
	C$config.c$54$1$3 ==.
;	Z:\micap\trabalho\receiver\/..\/receiver\config.c:54: void SPI_Init()
;	-----------------------------------------
;	 function SPI_Init
;	-----------------------------------------
_SPI_Init:
	C$config.c$56$1$4 ==.
;	Z:\micap\trabalho\receiver\/..\/receiver\config.c:56: SFRPAGE   = SPI0_PAGE;
	mov	_SFRPAGE,#0x00
	C$config.c$57$1$4 ==.
;	Z:\micap\trabalho\receiver\/..\/receiver\config.c:57: SPI0CN    = 0x05;
	mov	_SPI0CN,#0x05
	C$config.c$58$1$4 ==.
;	Z:\micap\trabalho\receiver\/..\/receiver\config.c:58: SPI0CKR   = 0x7C;
	mov	_SPI0CKR,#0x7c
	C$config.c$59$1$4 ==.
	XG$SPI_Init$0$0 ==.
	ret
;------------------------------------------------------------
;Allocation info for local variables in function 'DAC_Init'
;------------------------------------------------------------
	G$DAC_Init$0$0 ==.
	C$config.c$61$1$4 ==.
;	Z:\micap\trabalho\receiver\/..\/receiver\config.c:61: void DAC_Init()
;	-----------------------------------------
;	 function DAC_Init
;	-----------------------------------------
_DAC_Init:
	C$config.c$63$1$5 ==.
;	Z:\micap\trabalho\receiver\/..\/receiver\config.c:63: SFRPAGE   = DAC0_PAGE;
	mov	_SFRPAGE,#0x00
	C$config.c$64$1$5 ==.
;	Z:\micap\trabalho\receiver\/..\/receiver\config.c:64: DAC0CN    = 0x88;
	mov	_DAC0CN,#0x88
	C$config.c$65$1$5 ==.
	XG$DAC_Init$0$0 ==.
	ret
;------------------------------------------------------------
;Allocation info for local variables in function 'Voltage_Reference_Init'
;------------------------------------------------------------
	G$Voltage_Reference_Init$0$0 ==.
	C$config.c$67$1$5 ==.
;	Z:\micap\trabalho\receiver\/..\/receiver\config.c:67: void Voltage_Reference_Init()
;	-----------------------------------------
;	 function Voltage_Reference_Init
;	-----------------------------------------
_Voltage_Reference_Init:
	C$config.c$69$1$6 ==.
;	Z:\micap\trabalho\receiver\/..\/receiver\config.c:69: SFRPAGE   = ADC0_PAGE;
	mov	_SFRPAGE,#0x00
	C$config.c$70$1$6 ==.
;	Z:\micap\trabalho\receiver\/..\/receiver\config.c:70: REF0CN    = 0x03;
	mov	_REF0CN,#0x03
	C$config.c$71$1$6 ==.
	XG$Voltage_Reference_Init$0$0 ==.
	ret
;------------------------------------------------------------
;Allocation info for local variables in function 'Port_IO_Init'
;------------------------------------------------------------
	G$Port_IO_Init$0$0 ==.
	C$config.c$73$1$6 ==.
;	Z:\micap\trabalho\receiver\/..\/receiver\config.c:73: void Port_IO_Init()
;	-----------------------------------------
;	 function Port_IO_Init
;	-----------------------------------------
_Port_IO_Init:
	C$config.c$111$1$7 ==.
;	Z:\micap\trabalho\receiver\/..\/receiver\config.c:111: SFRPAGE   = CONFIG_PAGE;
	mov	_SFRPAGE,#0x0f
	C$config.c$112$1$7 ==.
;	Z:\micap\trabalho\receiver\/..\/receiver\config.c:112: P0MDOUT   = 0xB5;
	mov	_P0MDOUT,#0xb5
	C$config.c$113$1$7 ==.
;	Z:\micap\trabalho\receiver\/..\/receiver\config.c:113: P2MDOUT   = 0x1F;
	mov	_P2MDOUT,#0x1f
	C$config.c$114$1$7 ==.
;	Z:\micap\trabalho\receiver\/..\/receiver\config.c:114: XBR0      = 0x06;
	mov	_XBR0,#0x06
	C$config.c$115$1$7 ==.
;	Z:\micap\trabalho\receiver\/..\/receiver\config.c:115: XBR2      = 0x40;
	mov	_XBR2,#0x40
	C$config.c$116$1$7 ==.
	XG$Port_IO_Init$0$0 ==.
	ret
;------------------------------------------------------------
;Allocation info for local variables in function 'Oscillator_Init'
;------------------------------------------------------------
;i                         Allocated to registers r6 r7 
;------------------------------------------------------------
	G$Oscillator_Init$0$0 ==.
	C$config.c$118$1$7 ==.
;	Z:\micap\trabalho\receiver\/..\/receiver\config.c:118: void Oscillator_Init()
;	-----------------------------------------
;	 function Oscillator_Init
;	-----------------------------------------
_Oscillator_Init:
	C$config.c$121$1$8 ==.
;	Z:\micap\trabalho\receiver\/..\/receiver\config.c:121: SFRPAGE   = CONFIG_PAGE;
	mov	_SFRPAGE,#0x0f
	C$config.c$122$1$8 ==.
;	Z:\micap\trabalho\receiver\/..\/receiver\config.c:122: OSCXCN    = 0x67;
	mov	_OSCXCN,#0x67
	C$config.c$123$1$8 ==.
;	Z:\micap\trabalho\receiver\/..\/receiver\config.c:123: for (i = 0; i < 3000; i++);  // Wait 1ms for initialization
	mov	r6,#0xb8
	mov	r7,#0x0b
00107$:
	mov	a,r6
	add	a,#0xff
	mov	r4,a
	mov	a,r7
	addc	a,#0xff
	mov	r5,a
	mov	ar6,r4
	mov	ar7,r5
	mov	a,r4
	orl	a,r5
	jnz	00107$
	C$config.c$124$1$8 ==.
;	Z:\micap\trabalho\receiver\/..\/receiver\config.c:124: while ((OSCXCN & 0x80) == 0);
00102$:
	mov	a,_OSCXCN
	jnb	acc.7,00102$
	C$config.c$125$1$8 ==.
;	Z:\micap\trabalho\receiver\/..\/receiver\config.c:125: CLKSEL    = 0x01;
	mov	_CLKSEL,#0x01
	C$config.c$126$1$8 ==.
;	Z:\micap\trabalho\receiver\/..\/receiver\config.c:126: OSCICN    = 0x03;
	mov	_OSCICN,#0x03
	C$config.c$127$1$8 ==.
	XG$Oscillator_Init$0$0 ==.
	ret
;------------------------------------------------------------
;Allocation info for local variables in function 'Interrupts_Init'
;------------------------------------------------------------
	G$Interrupts_Init$0$0 ==.
	C$config.c$129$1$8 ==.
;	Z:\micap\trabalho\receiver\/..\/receiver\config.c:129: void Interrupts_Init()
;	-----------------------------------------
;	 function Interrupts_Init
;	-----------------------------------------
_Interrupts_Init:
	C$config.c$131$1$9 ==.
;	Z:\micap\trabalho\receiver\/..\/receiver\config.c:131: IE        = 0xB0;
	mov	_IE,#0xb0
	C$config.c$132$1$9 ==.
;	Z:\micap\trabalho\receiver\/..\/receiver\config.c:132: EIE2      = 0x04;
	mov	_EIE2,#0x04
	C$config.c$133$1$9 ==.
;	Z:\micap\trabalho\receiver\/..\/receiver\config.c:133: EIP2      = 0x04;
	mov	_EIP2,#0x04
	C$config.c$134$1$9 ==.
	XG$Interrupts_Init$0$0 ==.
	ret
;------------------------------------------------------------
;Allocation info for local variables in function 'Init_Device'
;------------------------------------------------------------
	G$Init_Device$0$0 ==.
	C$config.c$138$1$9 ==.
;	Z:\micap\trabalho\receiver\/..\/receiver\config.c:138: void Init_Device(void)
;	-----------------------------------------
;	 function Init_Device
;	-----------------------------------------
_Init_Device:
	C$config.c$140$1$11 ==.
;	Z:\micap\trabalho\receiver\/..\/receiver\config.c:140: Timer_Init();
	lcall	_Timer_Init
	C$config.c$141$1$11 ==.
;	Z:\micap\trabalho\receiver\/..\/receiver\config.c:141: UART_Init();
	lcall	_UART_Init
	C$config.c$142$1$11 ==.
;	Z:\micap\trabalho\receiver\/..\/receiver\config.c:142: SMBus_Init();
	lcall	_SMBus_Init
	C$config.c$143$1$11 ==.
;	Z:\micap\trabalho\receiver\/..\/receiver\config.c:143: SPI_Init();
	lcall	_SPI_Init
	C$config.c$144$1$11 ==.
;	Z:\micap\trabalho\receiver\/..\/receiver\config.c:144: DAC_Init();
	lcall	_DAC_Init
	C$config.c$145$1$11 ==.
;	Z:\micap\trabalho\receiver\/..\/receiver\config.c:145: Voltage_Reference_Init();
	lcall	_Voltage_Reference_Init
	C$config.c$146$1$11 ==.
;	Z:\micap\trabalho\receiver\/..\/receiver\config.c:146: Port_IO_Init();
	lcall	_Port_IO_Init
	C$config.c$147$1$11 ==.
;	Z:\micap\trabalho\receiver\/..\/receiver\config.c:147: Oscillator_Init();
	lcall	_Oscillator_Init
	C$config.c$148$1$11 ==.
;	Z:\micap\trabalho\receiver\/..\/receiver\config.c:148: Interrupts_Init();
	lcall	_Interrupts_Init
	C$config.c$149$1$11 ==.
	XG$Init_Device$0$0 ==.
	ret
;------------------------------------------------------------
;Allocation info for local variables in function 'delay_ms'
;------------------------------------------------------------
;t                         Allocated to registers r6 r7 
;------------------------------------------------------------
	G$delay_ms$0$0 ==.
	C$delay.h$13$1$11 ==.
;	Z:\micap\trabalho\receiver\/..\/delay.h:13: void delay_ms(unsigned int t)
;	-----------------------------------------
;	 function delay_ms
;	-----------------------------------------
_delay_ms:
	mov	r6,dpl
	mov	r7,dph
	C$delay.h$16$1$13 ==.
;	Z:\micap\trabalho\receiver\/..\/delay.h:16: TMOD |= 0x01;
	orl	_TMOD,#0x01
	C$delay.h$17$1$13 ==.
;	Z:\micap\trabalho\receiver\/..\/delay.h:17: TMOD &= 0xFD; // 0b11111101
	anl	_TMOD,#0xfd
00106$:
	C$delay.h$20$1$13 ==.
;	Z:\micap\trabalho\receiver\/..\/delay.h:20: for(;t > 0; t--)
	mov	a,r6
	orl	a,r7
	jz	00108$
	C$delay.h$22$2$14 ==.
;	Z:\micap\trabalho\receiver\/..\/delay.h:22: TR0 = 0; // Desabilita contagem do Timer0
	clr	_TR0
	C$delay.h$23$2$14 ==.
;	Z:\micap\trabalho\receiver\/..\/delay.h:23: TF0 = 0; // Define flag de interrupcao de overflow para 0
	clr	_TF0
	C$delay.h$25$2$14 ==.
;	Z:\micap\trabalho\receiver\/..\/delay.h:25: TL0 = 0x58;
	mov	_TL0,#0x58
	C$delay.h$27$2$14 ==.
;	Z:\micap\trabalho\receiver\/..\/delay.h:27: TH0 = 0x9E;
	mov	_TH0,#0x9e
	C$delay.h$29$2$14 ==.
;	Z:\micap\trabalho\receiver\/..\/delay.h:29: TR0 = 1;
	setb	_TR0
	C$delay.h$31$2$14 ==.
;	Z:\micap\trabalho\receiver\/..\/delay.h:31: while(TF0 != 1)
00101$:
	jnb	_TF0,00101$
	C$delay.h$20$1$13 ==.
;	Z:\micap\trabalho\receiver\/..\/delay.h:20: for(;t > 0; t--)
	dec	r6
	cjne	r6,#0xff,00127$
	dec	r7
00127$:
	sjmp	00106$
00108$:
	C$delay.h$34$1$13 ==.
	XG$delay_ms$0$0 ==.
	ret
;------------------------------------------------------------
;Allocation info for local variables in function 'delay_us'
;------------------------------------------------------------
;t                         Allocated to registers r6 r7 
;------------------------------------------------------------
	G$delay_us$0$0 ==.
	C$delay.h$36$1$13 ==.
;	Z:\micap\trabalho\receiver\/..\/delay.h:36: void delay_us(unsigned int t)
;	-----------------------------------------
;	 function delay_us
;	-----------------------------------------
_delay_us:
	mov	r6,dpl
	mov	r7,dph
	C$delay.h$39$1$16 ==.
;	Z:\micap\trabalho\receiver\/..\/delay.h:39: TMOD = TMOD | 0x01;
	orl	_TMOD,#0x01
	C$delay.h$40$1$16 ==.
;	Z:\micap\trabalho\receiver\/..\/delay.h:40: TMOD = TMOD & ~0x02;
	anl	_TMOD,#0xfd
00106$:
	C$delay.h$41$1$16 ==.
;	Z:\micap\trabalho\receiver\/..\/delay.h:41: for(;t>0; t--)
	mov	a,r6
	orl	a,r7
	jz	00108$
	C$delay.h$43$2$17 ==.
;	Z:\micap\trabalho\receiver\/..\/delay.h:43: TR0 = 0;
	clr	_TR0
	C$delay.h$44$2$17 ==.
;	Z:\micap\trabalho\receiver\/..\/delay.h:44: TF0 = 0;
	clr	_TF0
	C$delay.h$45$2$17 ==.
;	Z:\micap\trabalho\receiver\/..\/delay.h:45: TH0 = 0xff;
	mov	_TH0,#0xff
	C$delay.h$46$2$17 ==.
;	Z:\micap\trabalho\receiver\/..\/delay.h:46: TL0 = 0xe7;
	mov	_TL0,#0xe7
	C$delay.h$47$2$17 ==.
;	Z:\micap\trabalho\receiver\/..\/delay.h:47: TR0 = 1;
	setb	_TR0
	C$delay.h$48$2$17 ==.
;	Z:\micap\trabalho\receiver\/..\/delay.h:48: while(TF0 == 0);
00101$:
	jnb	_TF0,00101$
	C$delay.h$41$1$16 ==.
;	Z:\micap\trabalho\receiver\/..\/delay.h:41: for(;t>0; t--)
	dec	r6
	cjne	r6,#0xff,00127$
	dec	r7
00127$:
	sjmp	00106$
00108$:
	C$delay.h$50$1$16 ==.
	XG$delay_us$0$0 ==.
	ret
;------------------------------------------------------------
;Allocation info for local variables in function 'delay_160ns'
;------------------------------------------------------------
	G$delay_160ns$0$0 ==.
	C$delay.h$53$1$16 ==.
;	Z:\micap\trabalho\receiver\/..\/delay.h:53: void delay_160ns()
;	-----------------------------------------
;	 function delay_160ns
;	-----------------------------------------
_delay_160ns:
	C$delay.h$55$1$18 ==.
;	Z:\micap\trabalho\receiver\/..\/delay.h:55: NOP();
	nop
	C$delay.h$56$1$18 ==.
;	Z:\micap\trabalho\receiver\/..\/delay.h:56: NOP();
	nop
	C$delay.h$57$1$18 ==.
;	Z:\micap\trabalho\receiver\/..\/delay.h:57: NOP();
	nop
	C$delay.h$58$1$18 ==.
;	Z:\micap\trabalho\receiver\/..\/delay.h:58: NOP();
	nop
	C$delay.h$59$1$18 ==.
	XG$delay_160ns$0$0 ==.
	ret
;------------------------------------------------------------
;Allocation info for local variables in function 'delay_320ns'
;------------------------------------------------------------
	G$delay_320ns$0$0 ==.
	C$delay.h$61$1$18 ==.
;	Z:\micap\trabalho\receiver\/..\/delay.h:61: void delay_320ns()
;	-----------------------------------------
;	 function delay_320ns
;	-----------------------------------------
_delay_320ns:
	C$delay.h$63$1$19 ==.
;	Z:\micap\trabalho\receiver\/..\/delay.h:63: delay_160ns();
	lcall	_delay_160ns
	C$delay.h$64$1$19 ==.
;	Z:\micap\trabalho\receiver\/..\/delay.h:64: delay_160ns();
	lcall	_delay_160ns
	C$delay.h$65$1$19 ==.
	XG$delay_320ns$0$0 ==.
	ret
;------------------------------------------------------------
;Allocation info for local variables in function 'delay_480ns'
;------------------------------------------------------------
	G$delay_480ns$0$0 ==.
	C$delay.h$67$1$19 ==.
;	Z:\micap\trabalho\receiver\/..\/delay.h:67: void delay_480ns()
;	-----------------------------------------
;	 function delay_480ns
;	-----------------------------------------
_delay_480ns:
	C$delay.h$69$1$20 ==.
;	Z:\micap\trabalho\receiver\/..\/delay.h:69: delay_320ns();
	lcall	_delay_320ns
	C$delay.h$70$1$20 ==.
;	Z:\micap\trabalho\receiver\/..\/delay.h:70: delay_160ns();
	lcall	_delay_160ns
	C$delay.h$71$1$20 ==.
	XG$delay_480ns$0$0 ==.
	ret
;------------------------------------------------------------
;Allocation info for local variables in function 'le_glcd'
;------------------------------------------------------------
;byte                      Allocated to registers r7 
;------------------------------------------------------------
	G$le_glcd$0$0 ==.
	C$glcd.h$125$1$20 ==.
;	Z:\micap\trabalho\receiver\/..\/glcd.h:125: unsigned char le_glcd(__bit cd, __bit cs)
;	-----------------------------------------
;	 function le_glcd
;	-----------------------------------------
_le_glcd:
	C$glcd.h$128$1$23 ==.
;	Z:\micap\trabalho\receiver\/..\/glcd.h:128: RW = 1;
	setb	_P2_3
	C$glcd.h$129$1$23 ==.
;	Z:\micap\trabalho\receiver\/..\/glcd.h:129: CS1 = cs;
	mov	c,_le_glcd_PARM_2
	mov	_P2_0,c
	C$glcd.h$130$1$23 ==.
;	Z:\micap\trabalho\receiver\/..\/glcd.h:130: CS2 = !cs;
	mov	c,_le_glcd_PARM_2
	cpl	c
	mov	_P2_1,c
	C$glcd.h$131$1$23 ==.
;	Z:\micap\trabalho\receiver\/..\/glcd.h:131: RS = cd;
	mov	c,_le_glcd_PARM_1
	mov	_P2_2,c
	C$glcd.h$133$1$23 ==.
;	Z:\micap\trabalho\receiver\/..\/glcd.h:133: delay_160ns();
	lcall	_delay_160ns
	C$glcd.h$135$1$23 ==.
;	Z:\micap\trabalho\receiver\/..\/glcd.h:135: E = 1;
	setb	_P2_4
	C$glcd.h$137$1$23 ==.
;	Z:\micap\trabalho\receiver\/..\/glcd.h:137: delay_320ns();
	lcall	_delay_320ns
	C$glcd.h$140$1$23 ==.
;	Z:\micap\trabalho\receiver\/..\/glcd.h:140: SFRPAGE = CONFIG_PAGE;
	mov	_SFRPAGE,#0x0f
	C$glcd.h$141$1$23 ==.
;	Z:\micap\trabalho\receiver\/..\/glcd.h:141: byte = DB;
	mov	r7,_P4
	C$glcd.h$142$1$23 ==.
;	Z:\micap\trabalho\receiver\/..\/glcd.h:142: SFRPAGE = LEGACY_PAGE;
	mov	_SFRPAGE,#0x00
	C$glcd.h$143$1$23 ==.
;	Z:\micap\trabalho\receiver\/..\/glcd.h:143: RW = 1; // desliga CS da memoria
	setb	_P2_3
	C$glcd.h$145$1$23 ==.
;	Z:\micap\trabalho\receiver\/..\/glcd.h:145: delay_160ns();
	push	ar7
	lcall	_delay_160ns
	C$glcd.h$146$1$23 ==.
;	Z:\micap\trabalho\receiver\/..\/glcd.h:146: E = 0;
	clr	_P2_4
	C$glcd.h$147$1$23 ==.
;	Z:\micap\trabalho\receiver\/..\/glcd.h:147: delay_480ns();
	lcall	_delay_480ns
	pop	ar7
	C$glcd.h$149$1$23 ==.
;	Z:\micap\trabalho\receiver\/..\/glcd.h:149: return byte;
	mov	dpl,r7
	C$glcd.h$151$1$23 ==.
	XG$le_glcd$0$0 ==.
	ret
;------------------------------------------------------------
;Allocation info for local variables in function 'esc_glcd'
;------------------------------------------------------------
;byte                      Allocated to registers r7 
;------------------------------------------------------------
	G$esc_glcd$0$0 ==.
	C$glcd.h$153$1$23 ==.
;	Z:\micap\trabalho\receiver\/..\/glcd.h:153: void esc_glcd(unsigned char byte, __bit cd, __bit cs)
;	-----------------------------------------
;	 function esc_glcd
;	-----------------------------------------
_esc_glcd:
	mov	r7,dpl
	C$glcd.h$156$1$25 ==.
;	Z:\micap\trabalho\receiver\/..\/glcd.h:156: while(le_glcd(CD, cs) & 0x80);
00101$:
	clr	_le_glcd_PARM_1
	mov	c,_esc_glcd_PARM_3
	mov	_le_glcd_PARM_2,c
	push	ar7
	lcall	_le_glcd
	mov	a,dpl
	pop	ar7
	jb	acc.7,00101$
	C$glcd.h$158$1$25 ==.
;	Z:\micap\trabalho\receiver\/..\/glcd.h:158: RW = 0;
	clr	_P2_3
	C$glcd.h$159$1$25 ==.
;	Z:\micap\trabalho\receiver\/..\/glcd.h:159: CS1 = cs;
	mov	c,_esc_glcd_PARM_3
	mov	_P2_0,c
	C$glcd.h$160$1$25 ==.
;	Z:\micap\trabalho\receiver\/..\/glcd.h:160: CS2 = !cs;
	mov	c,_esc_glcd_PARM_3
	cpl	c
	mov	_P2_1,c
	C$glcd.h$161$1$25 ==.
;	Z:\micap\trabalho\receiver\/..\/glcd.h:161: RS = cd;
	mov	c,_esc_glcd_PARM_2
	mov	_P2_2,c
	C$glcd.h$163$1$25 ==.
;	Z:\micap\trabalho\receiver\/..\/glcd.h:163: SFRPAGE = CONFIG_PAGE;
	mov	_SFRPAGE,#0x0f
	C$glcd.h$164$1$25 ==.
;	Z:\micap\trabalho\receiver\/..\/glcd.h:164: DB = byte;
	mov	_P4,r7
	C$glcd.h$165$1$25 ==.
;	Z:\micap\trabalho\receiver\/..\/glcd.h:165: SFRPAGE = LEGACY_PAGE;
	mov	_SFRPAGE,#0x00
	C$glcd.h$167$1$25 ==.
;	Z:\micap\trabalho\receiver\/..\/glcd.h:167: delay_160ns();
	lcall	_delay_160ns
	C$glcd.h$168$1$25 ==.
;	Z:\micap\trabalho\receiver\/..\/glcd.h:168: E = 1;
	setb	_P2_4
	C$glcd.h$169$1$25 ==.
;	Z:\micap\trabalho\receiver\/..\/glcd.h:169: delay_480ns();
	lcall	_delay_480ns
	C$glcd.h$170$1$25 ==.
;	Z:\micap\trabalho\receiver\/..\/glcd.h:170: E = 0;
	clr	_P2_4
	C$glcd.h$172$1$25 ==.
;	Z:\micap\trabalho\receiver\/..\/glcd.h:172: SFRPAGE = CONFIG_PAGE;
	mov	_SFRPAGE,#0x0f
	C$glcd.h$173$1$25 ==.
;	Z:\micap\trabalho\receiver\/..\/glcd.h:173: DB = 0xFF;
	mov	_P4,#0xff
	C$glcd.h$174$1$25 ==.
;	Z:\micap\trabalho\receiver\/..\/glcd.h:174: SFRPAGE = LEGACY_PAGE;
	mov	_SFRPAGE,#0x00
	C$glcd.h$175$1$25 ==.
;	Z:\micap\trabalho\receiver\/..\/glcd.h:175: RW = 1;
	setb	_P2_3
	C$glcd.h$176$1$25 ==.
;	Z:\micap\trabalho\receiver\/..\/glcd.h:176: delay_480ns();
	lcall	_delay_480ns
	C$glcd.h$177$1$25 ==.
	XG$esc_glcd$0$0 ==.
	ret
;------------------------------------------------------------
;Allocation info for local variables in function 'conf_Y'
;------------------------------------------------------------
;y                         Allocated to registers r7 
;------------------------------------------------------------
	G$conf_Y$0$0 ==.
	C$glcd.h$179$1$25 ==.
;	Z:\micap\trabalho\receiver\/..\/glcd.h:179: void conf_Y(unsigned char y, __bit cs)
;	-----------------------------------------
;	 function conf_Y
;	-----------------------------------------
_conf_Y:
	mov	r7,dpl
	C$glcd.h$181$1$27 ==.
;	Z:\micap\trabalho\receiver\/..\/glcd.h:181: y &= 0x3F; // protecao para valores > 63
	anl	ar7,#0x3f
	C$glcd.h$182$1$27 ==.
;	Z:\micap\trabalho\receiver\/..\/glcd.h:182: esc_glcd(0x40|y, CD, cs);
	mov	a,#0x40
	orl	a,r7
	mov	dpl,a
	clr	_esc_glcd_PARM_2
	mov	c,_conf_Y_PARM_2
	mov	_esc_glcd_PARM_3,c
	lcall	_esc_glcd
	C$glcd.h$183$1$27 ==.
	XG$conf_Y$0$0 ==.
	ret
;------------------------------------------------------------
;Allocation info for local variables in function 'conf_pag'
;------------------------------------------------------------
;pag                       Allocated to registers r7 
;------------------------------------------------------------
	G$conf_pag$0$0 ==.
	C$glcd.h$185$1$27 ==.
;	Z:\micap\trabalho\receiver\/..\/glcd.h:185: void conf_pag(unsigned char pag, __bit cs)
;	-----------------------------------------
;	 function conf_pag
;	-----------------------------------------
_conf_pag:
	mov	r7,dpl
	C$glcd.h$187$1$29 ==.
;	Z:\micap\trabalho\receiver\/..\/glcd.h:187: pag &= 0x07;// protecao para valores > 7
	anl	ar7,#0x07
	C$glcd.h$188$1$29 ==.
;	Z:\micap\trabalho\receiver\/..\/glcd.h:188: esc_glcd(0xB8|pag, CD, cs);
	mov	a,#0xb8
	orl	a,r7
	mov	dpl,a
	clr	_esc_glcd_PARM_2
	mov	c,_conf_pag_PARM_2
	mov	_esc_glcd_PARM_3,c
	lcall	_esc_glcd
	C$glcd.h$189$1$29 ==.
	XG$conf_pag$0$0 ==.
	ret
;------------------------------------------------------------
;Allocation info for local variables in function 'limpa_glcd'
;------------------------------------------------------------
;i                         Allocated to registers r6 r7 
;j                         Allocated to registers r4 r5 
;------------------------------------------------------------
	G$limpa_glcd$0$0 ==.
	C$glcd.h$191$1$29 ==.
;	Z:\micap\trabalho\receiver\/..\/glcd.h:191: void limpa_glcd(__bit cs)
;	-----------------------------------------
;	 function limpa_glcd
;	-----------------------------------------
_limpa_glcd:
	C$glcd.h$194$1$31 ==.
;	Z:\micap\trabalho\receiver\/..\/glcd.h:194: for(i = 0; i < 8; i++)
	mov	r6,#0x00
	mov	r7,#0x00
00105$:
	C$glcd.h$196$2$32 ==.
;	Z:\micap\trabalho\receiver\/..\/glcd.h:196: conf_pag(i, cs);
	mov	dpl,r6
	mov	c,_limpa_glcd_PARM_1
	mov	_conf_pag_PARM_2,c
	push	ar7
	push	ar6
	lcall	_conf_pag
	C$glcd.h$197$2$32 ==.
;	Z:\micap\trabalho\receiver\/..\/glcd.h:197: conf_Y(0, cs);
	mov	c,_limpa_glcd_PARM_1
	mov	_conf_Y_PARM_2,c
	mov	dpl,#0x00
	lcall	_conf_Y
	pop	ar6
	pop	ar7
	C$glcd.h$198$1$31 ==.
;	Z:\micap\trabalho\receiver\/..\/glcd.h:198: for(j = 0; j < 64; j++)
	mov	r4,#0x00
	mov	r5,#0x00
00103$:
	C$glcd.h$199$2$32 ==.
;	Z:\micap\trabalho\receiver\/..\/glcd.h:199: esc_glcd(0x00, DA, cs);
	setb	_esc_glcd_PARM_2
	mov	c,_limpa_glcd_PARM_1
	mov	_esc_glcd_PARM_3,c
	mov	dpl,#0x00
	push	ar7
	push	ar6
	push	ar5
	push	ar4
	lcall	_esc_glcd
	pop	ar4
	pop	ar5
	pop	ar6
	pop	ar7
	C$glcd.h$198$2$32 ==.
;	Z:\micap\trabalho\receiver\/..\/glcd.h:198: for(j = 0; j < 64; j++)
	inc	r4
	cjne	r4,#0x00,00120$
	inc	r5
00120$:
	clr	c
	mov	a,r4
	subb	a,#0x40
	mov	a,r5
	xrl	a,#0x80
	subb	a,#0x80
	jc	00103$
	C$glcd.h$194$1$31 ==.
;	Z:\micap\trabalho\receiver\/..\/glcd.h:194: for(i = 0; i < 8; i++)
	inc	r6
	cjne	r6,#0x00,00122$
	inc	r7
00122$:
	clr	c
	mov	a,r6
	subb	a,#0x08
	mov	a,r7
	xrl	a,#0x80
	subb	a,#0x80
	jc	00105$
	C$glcd.h$201$1$31 ==.
	XG$limpa_glcd$0$0 ==.
	ret
;------------------------------------------------------------
;Allocation info for local variables in function 'clear_all_glcd'
;------------------------------------------------------------
;i                         Allocated to registers r6 r7 
;j                         Allocated to registers r4 r5 
;------------------------------------------------------------
	G$clear_all_glcd$0$0 ==.
	C$glcd.h$203$1$31 ==.
;	Z:\micap\trabalho\receiver\/..\/glcd.h:203: void clear_all_glcd()
;	-----------------------------------------
;	 function clear_all_glcd
;	-----------------------------------------
_clear_all_glcd:
	C$glcd.h$206$1$33 ==.
;	Z:\micap\trabalho\receiver\/..\/glcd.h:206: for(i = 0; i < 8; i++)
	mov	r6,#0x00
	mov	r7,#0x00
00108$:
	C$glcd.h$208$2$34 ==.
;	Z:\micap\trabalho\receiver\/..\/glcd.h:208: conf_pag(i, ESQ);
	mov	dpl,r6
	clr	_conf_pag_PARM_2
	push	ar7
	push	ar6
	lcall	_conf_pag
	C$glcd.h$209$2$34 ==.
;	Z:\micap\trabalho\receiver\/..\/glcd.h:209: conf_Y(0, ESQ);
	clr	_conf_Y_PARM_2
	mov	dpl,#0x00
	lcall	_conf_Y
	pop	ar6
	pop	ar7
	C$glcd.h$210$1$33 ==.
;	Z:\micap\trabalho\receiver\/..\/glcd.h:210: for(j = 0; j < 64; j++)
	mov	r4,#0x00
	mov	r5,#0x00
00104$:
	C$glcd.h$211$2$34 ==.
;	Z:\micap\trabalho\receiver\/..\/glcd.h:211: esc_glcd(0x00, DA, ESQ);
	setb	_esc_glcd_PARM_2
	clr	_esc_glcd_PARM_3
	mov	dpl,#0x00
	push	ar7
	push	ar6
	push	ar5
	push	ar4
	lcall	_esc_glcd
	pop	ar4
	pop	ar5
	pop	ar6
	pop	ar7
	C$glcd.h$210$2$34 ==.
;	Z:\micap\trabalho\receiver\/..\/glcd.h:210: for(j = 0; j < 64; j++)
	inc	r4
	cjne	r4,#0x00,00130$
	inc	r5
00130$:
	clr	c
	mov	a,r4
	subb	a,#0x40
	mov	a,r5
	xrl	a,#0x80
	subb	a,#0x80
	jc	00104$
	C$glcd.h$213$2$34 ==.
;	Z:\micap\trabalho\receiver\/..\/glcd.h:213: conf_pag(i, DIR);
	mov	dpl,r6
	setb	_conf_pag_PARM_2
	push	ar7
	push	ar6
	lcall	_conf_pag
	C$glcd.h$214$2$34 ==.
;	Z:\micap\trabalho\receiver\/..\/glcd.h:214: conf_Y(0, DIR);
	setb	_conf_Y_PARM_2
	mov	dpl,#0x00
	lcall	_conf_Y
	pop	ar6
	pop	ar7
	C$glcd.h$215$1$33 ==.
;	Z:\micap\trabalho\receiver\/..\/glcd.h:215: for(j = 0; j < 64; j++)
	mov	r4,#0x00
	mov	r5,#0x00
00106$:
	C$glcd.h$216$2$34 ==.
;	Z:\micap\trabalho\receiver\/..\/glcd.h:216: esc_glcd(0x00, DA, DIR);
	setb	_esc_glcd_PARM_2
	setb	_esc_glcd_PARM_3
	mov	dpl,#0x00
	push	ar7
	push	ar6
	push	ar5
	push	ar4
	lcall	_esc_glcd
	pop	ar4
	pop	ar5
	pop	ar6
	pop	ar7
	C$glcd.h$215$2$34 ==.
;	Z:\micap\trabalho\receiver\/..\/glcd.h:215: for(j = 0; j < 64; j++)
	inc	r4
	cjne	r4,#0x00,00132$
	inc	r5
00132$:
	clr	c
	mov	a,r4
	subb	a,#0x40
	mov	a,r5
	xrl	a,#0x80
	subb	a,#0x80
	jc	00106$
	C$glcd.h$206$1$33 ==.
;	Z:\micap\trabalho\receiver\/..\/glcd.h:206: for(i = 0; i < 8; i++)
	inc	r6
	cjne	r6,#0x00,00134$
	inc	r7
00134$:
	clr	c
	mov	a,r6
	subb	a,#0x08
	mov	a,r7
	xrl	a,#0x80
	subb	a,#0x80
	jnc	00135$
	ljmp	00108$
00135$:
	C$glcd.h$218$1$33 ==.
	XG$clear_all_glcd$0$0 ==.
	ret
;------------------------------------------------------------
;Allocation info for local variables in function 'limpa_linha_glcd'
;------------------------------------------------------------
;linha                     Allocated to registers r7 
;i                         Allocated to registers r5 r6 
;------------------------------------------------------------
	G$limpa_linha_glcd$0$0 ==.
	C$glcd.h$220$1$33 ==.
;	Z:\micap\trabalho\receiver\/..\/glcd.h:220: void limpa_linha_glcd(unsigned char linha)
;	-----------------------------------------
;	 function limpa_linha_glcd
;	-----------------------------------------
_limpa_linha_glcd:
	C$glcd.h$224$1$36 ==.
;	Z:\micap\trabalho\receiver\/..\/glcd.h:224: conf_pag(linha-1, ESQ);
	mov	a,dpl
	mov	r7,a
	dec	a
	mov	dpl,a
	clr	_conf_pag_PARM_2
	push	ar7
	lcall	_conf_pag
	C$glcd.h$225$1$36 ==.
;	Z:\micap\trabalho\receiver\/..\/glcd.h:225: conf_Y(0, ESQ);
	clr	_conf_Y_PARM_2
	mov	dpl,#0x00
	lcall	_conf_Y
	pop	ar7
	C$glcd.h$226$1$36 ==.
;	Z:\micap\trabalho\receiver\/..\/glcd.h:226: for(i = 0; i < 64; i++)
	mov	r5,#0x00
	mov	r6,#0x00
00103$:
	C$glcd.h$227$1$36 ==.
;	Z:\micap\trabalho\receiver\/..\/glcd.h:227: esc_glcd(0x00, DA, ESQ);
	setb	_esc_glcd_PARM_2
	clr	_esc_glcd_PARM_3
	mov	dpl,#0x00
	push	ar7
	push	ar6
	push	ar5
	lcall	_esc_glcd
	pop	ar5
	pop	ar6
	pop	ar7
	C$glcd.h$226$1$36 ==.
;	Z:\micap\trabalho\receiver\/..\/glcd.h:226: for(i = 0; i < 64; i++)
	inc	r5
	cjne	r5,#0x00,00120$
	inc	r6
00120$:
	clr	c
	mov	a,r5
	subb	a,#0x40
	mov	a,r6
	xrl	a,#0x80
	subb	a,#0x80
	jc	00103$
	C$glcd.h$229$1$36 ==.
;	Z:\micap\trabalho\receiver\/..\/glcd.h:229: conf_pag(linha-1, DIR);
	mov	a,r7
	dec	a
	mov	dpl,a
	setb	_conf_pag_PARM_2
	lcall	_conf_pag
	C$glcd.h$230$1$36 ==.
;	Z:\micap\trabalho\receiver\/..\/glcd.h:230: conf_Y(0, DIR);
	setb	_conf_Y_PARM_2
	mov	dpl,#0x00
	lcall	_conf_Y
	C$glcd.h$231$1$36 ==.
;	Z:\micap\trabalho\receiver\/..\/glcd.h:231: for(i = 0; i < 64; i++)
	mov	r6,#0x00
	mov	r7,#0x00
00105$:
	C$glcd.h$232$1$36 ==.
;	Z:\micap\trabalho\receiver\/..\/glcd.h:232: esc_glcd(0x00, DA, DIR);
	setb	_esc_glcd_PARM_2
	setb	_esc_glcd_PARM_3
	mov	dpl,#0x00
	push	ar7
	push	ar6
	lcall	_esc_glcd
	pop	ar6
	pop	ar7
	C$glcd.h$231$1$36 ==.
;	Z:\micap\trabalho\receiver\/..\/glcd.h:231: for(i = 0; i < 64; i++)
	inc	r6
	cjne	r6,#0x00,00122$
	inc	r7
00122$:
	clr	c
	mov	a,r6
	subb	a,#0x40
	mov	a,r7
	xrl	a,#0x80
	subb	a,#0x80
	jc	00105$
	C$glcd.h$233$1$36 ==.
	XG$limpa_linha_glcd$0$0 ==.
	ret
;------------------------------------------------------------
;Allocation info for local variables in function 'glcd_init'
;------------------------------------------------------------
	G$glcd_init$0$0 ==.
	C$glcd.h$235$1$36 ==.
;	Z:\micap\trabalho\receiver\/..\/glcd.h:235: void glcd_init()
;	-----------------------------------------
;	 function glcd_init
;	-----------------------------------------
_glcd_init:
	C$glcd.h$237$1$37 ==.
;	Z:\micap\trabalho\receiver\/..\/glcd.h:237: carac_esc = pag_esc = 0;
	clr	a
	mov	_pag_esc,a
	mov	(_pag_esc + 1),a
	mov	_carac_esc,a
	mov	(_carac_esc + 1),a
	C$glcd.h$238$1$37 ==.
;	Z:\micap\trabalho\receiver\/..\/glcd.h:238: E = 0;
	clr	_P2_4
	C$glcd.h$239$1$37 ==.
;	Z:\micap\trabalho\receiver\/..\/glcd.h:239: RST = 1;
	setb	_P2_5
	C$glcd.h$240$1$37 ==.
;	Z:\micap\trabalho\receiver\/..\/glcd.h:240: CS1 = 1;
	setb	_P2_0
	C$glcd.h$241$1$37 ==.
;	Z:\micap\trabalho\receiver\/..\/glcd.h:241: CS2 = 1;
	setb	_P2_1
	C$glcd.h$242$1$37 ==.
;	Z:\micap\trabalho\receiver\/..\/glcd.h:242: SFRPAGE = CONFIG_PAGE;
	mov	_SFRPAGE,#0x0f
	C$glcd.h$243$1$37 ==.
;	Z:\micap\trabalho\receiver\/..\/glcd.h:243: DB = 0xFF;
	mov	_P4,#0xff
	C$glcd.h$244$1$37 ==.
;	Z:\micap\trabalho\receiver\/..\/glcd.h:244: SFRPAGE = LEGACY_PAGE;
	mov	_SFRPAGE,#0x00
	C$glcd.h$247$1$37 ==.
;	Z:\micap\trabalho\receiver\/..\/glcd.h:247: while((le_glcd(CD, ESQ) & 0x10) && (le_glcd(CD, DIR) & 0x10))
00102$:
	clr	_le_glcd_PARM_1
	clr	_le_glcd_PARM_2
	lcall	_le_glcd
	mov	a,dpl
	jnb	acc.4,00104$
	clr	_le_glcd_PARM_1
	setb	_le_glcd_PARM_2
	lcall	_le_glcd
	mov	a,dpl
	jb	acc.4,00102$
00104$:
	C$glcd.h$251$1$37 ==.
;	Z:\micap\trabalho\receiver\/..\/glcd.h:251: esc_glcd(0x3F, CD, ESQ);
	clr	_esc_glcd_PARM_2
	clr	_esc_glcd_PARM_3
	mov	dpl,#0x3f
	lcall	_esc_glcd
	C$glcd.h$252$1$37 ==.
;	Z:\micap\trabalho\receiver\/..\/glcd.h:252: esc_glcd(0x3F, CD, DIR);
	clr	_esc_glcd_PARM_2
	setb	_esc_glcd_PARM_3
	mov	dpl,#0x3f
	lcall	_esc_glcd
	C$glcd.h$255$1$37 ==.
;	Z:\micap\trabalho\receiver\/..\/glcd.h:255: esc_glcd(0x40, CD, ESQ);
	clr	_esc_glcd_PARM_2
	clr	_esc_glcd_PARM_3
	mov	dpl,#0x40
	lcall	_esc_glcd
	C$glcd.h$256$1$37 ==.
;	Z:\micap\trabalho\receiver\/..\/glcd.h:256: esc_glcd(0x40, CD, DIR);
	clr	_esc_glcd_PARM_2
	setb	_esc_glcd_PARM_3
	mov	dpl,#0x40
	lcall	_esc_glcd
	C$glcd.h$258$1$37 ==.
;	Z:\micap\trabalho\receiver\/..\/glcd.h:258: esc_glcd(0xB8, CD, ESQ);
	clr	_esc_glcd_PARM_2
	clr	_esc_glcd_PARM_3
	mov	dpl,#0xb8
	lcall	_esc_glcd
	C$glcd.h$259$1$37 ==.
;	Z:\micap\trabalho\receiver\/..\/glcd.h:259: esc_glcd(0xB8, CD, DIR);
	clr	_esc_glcd_PARM_2
	setb	_esc_glcd_PARM_3
	mov	dpl,#0xb8
	lcall	_esc_glcd
	C$glcd.h$261$1$37 ==.
;	Z:\micap\trabalho\receiver\/..\/glcd.h:261: esc_glcd(0xC0, CD, ESQ);
	clr	_esc_glcd_PARM_2
	clr	_esc_glcd_PARM_3
	mov	dpl,#0xc0
	lcall	_esc_glcd
	C$glcd.h$262$1$37 ==.
;	Z:\micap\trabalho\receiver\/..\/glcd.h:262: esc_glcd(0xC0, CD, DIR);
	clr	_esc_glcd_PARM_2
	setb	_esc_glcd_PARM_3
	mov	dpl,#0xc0
	lcall	_esc_glcd
	C$glcd.h$264$1$37 ==.
;	Z:\micap\trabalho\receiver\/..\/glcd.h:264: limpa_glcd(ESQ);
	clr	_limpa_glcd_PARM_1
	lcall	_limpa_glcd
	C$glcd.h$265$1$37 ==.
;	Z:\micap\trabalho\receiver\/..\/glcd.h:265: limpa_glcd(DIR);
	setb	_limpa_glcd_PARM_1
	lcall	_limpa_glcd
	C$glcd.h$267$1$37 ==.
;	Z:\micap\trabalho\receiver\/..\/glcd.h:267: conf_pag(0x00, ESQ); // pagina 0
	clr	_conf_pag_PARM_2
	mov	dpl,#0x00
	lcall	_conf_pag
	C$glcd.h$268$1$37 ==.
;	Z:\micap\trabalho\receiver\/..\/glcd.h:268: conf_Y(0x00, ESQ);   // Y = 0
	clr	_conf_Y_PARM_2
	mov	dpl,#0x00
	lcall	_conf_Y
	C$glcd.h$269$1$37 ==.
	XG$glcd_init$0$0 ==.
	ret
;------------------------------------------------------------
;Allocation info for local variables in function 'putchar'
;------------------------------------------------------------
;c                         Allocated to registers r7 
;------------------------------------------------------------
	G$putchar$0$0 ==.
	C$glcd.h$271$1$37 ==.
;	Z:\micap\trabalho\receiver\/..\/glcd.h:271: void putchar(char c)
;	-----------------------------------------
;	 function putchar
;	-----------------------------------------
_putchar:
	mov	r7,dpl
	C$glcd.h$275$1$39 ==.
;	Z:\micap\trabalho\receiver\/..\/glcd.h:275: if (c < 9)
	cjne	r7,#0x09,00120$
00120$:
	jnc	00107$
	C$glcd.h$277$2$40 ==.
;	Z:\micap\trabalho\receiver\/..\/glcd.h:277: pag_esc = c-1;
	mov	ar5,r7
	mov	r6,#0x00
	mov	a,r5
	add	a,#0xff
	mov	_pag_esc,a
	mov	a,r6
	addc	a,#0xff
	mov	(_pag_esc + 1),a
	C$glcd.h$278$2$40 ==.
;	Z:\micap\trabalho\receiver\/..\/glcd.h:278: conf_pag(pag_esc, ESQ);
	mov	dpl,_pag_esc
	clr	_conf_pag_PARM_2
	push	ar7
	lcall	_conf_pag
	C$glcd.h$279$2$40 ==.
;	Z:\micap\trabalho\receiver\/..\/glcd.h:279: conf_pag(pag_esc, DIR);
	mov	dpl,_pag_esc
	setb	_conf_pag_PARM_2
	lcall	_conf_pag
	C$glcd.h$280$2$40 ==.
;	Z:\micap\trabalho\receiver\/..\/glcd.h:280: conf_Y(0, ESQ);
	clr	_conf_Y_PARM_2
	mov	dpl,#0x00
	lcall	_conf_Y
	C$glcd.h$281$2$40 ==.
;	Z:\micap\trabalho\receiver\/..\/glcd.h:281: conf_Y(0, DIR);
	setb	_conf_Y_PARM_2
	mov	dpl,#0x00
	lcall	_conf_Y
	pop	ar7
	C$glcd.h$282$2$40 ==.
;	Z:\micap\trabalho\receiver\/..\/glcd.h:282: carac_esc = 0;
	clr	a
	mov	_carac_esc,a
	mov	(_carac_esc + 1),a
	C$glcd.h$283$2$40 ==.
;	Z:\micap\trabalho\receiver\/..\/glcd.h:283: limpa_linha_glcd(c);
	mov	dpl,r7
	lcall	_limpa_linha_glcd
	ljmp	00109$
00107$:
	C$glcd.h$287$2$41 ==.
;	Z:\micap\trabalho\receiver\/..\/glcd.h:287: if (carac_esc < 8) lado = ESQ; else lado = DIR;
	clr	c
	mov	a,_carac_esc
	subb	a,#0x08
	mov	a,(_carac_esc + 1)
	xrl	a,#0x80
	subb	a,#0x80
	jnc	00102$
	clr	_putchar_lado_1_39
	sjmp	00103$
00102$:
	setb	_putchar_lado_1_39
00103$:
	C$glcd.h$291$2$41 ==.
;	Z:\micap\trabalho\receiver\/..\/glcd.h:291: esc_glcd(fonte[c-32][0], DA, lado);
	mov	r6,#0x00
	mov	a,r7
	add	a,#0xe0
	mov	__mulint_PARM_2,a
	mov	a,r6
	addc	a,#0xff
	mov	(__mulint_PARM_2 + 1),a
	mov	dptr,#0x0005
	lcall	__mulint
	mov	r6,dpl
	mov	r7,dph
	mov	a,r6
	add	a,#_fonte
	mov	r6,a
	mov	a,r7
	addc	a,#(_fonte >> 8)
	mov	r7,a
	mov	dpl,r6
	mov	dph,r7
	clr	a
	movc	a,@a+dptr
	mov	r5,a
	setb	_esc_glcd_PARM_2
	mov	c,_putchar_lado_1_39
	mov	_esc_glcd_PARM_3,c
	mov	dpl,r5
	push	ar7
	push	ar6
	lcall	_esc_glcd
	pop	ar6
	pop	ar7
	C$glcd.h$292$2$41 ==.
;	Z:\micap\trabalho\receiver\/..\/glcd.h:292: esc_glcd(fonte[c-32][1], DA, lado);
	mov	dpl,r6
	mov	dph,r7
	inc	dptr
	clr	a
	movc	a,@a+dptr
	mov	r5,a
	setb	_esc_glcd_PARM_2
	mov	c,_putchar_lado_1_39
	mov	_esc_glcd_PARM_3,c
	mov	dpl,r5
	push	ar7
	push	ar6
	lcall	_esc_glcd
	pop	ar6
	pop	ar7
	C$glcd.h$293$2$41 ==.
;	Z:\micap\trabalho\receiver\/..\/glcd.h:293: esc_glcd(fonte[c-32][2], DA, lado);
	mov	dpl,r6
	mov	dph,r7
	inc	dptr
	inc	dptr
	clr	a
	movc	a,@a+dptr
	mov	r5,a
	setb	_esc_glcd_PARM_2
	mov	c,_putchar_lado_1_39
	mov	_esc_glcd_PARM_3,c
	mov	dpl,r5
	push	ar7
	push	ar6
	lcall	_esc_glcd
	pop	ar6
	pop	ar7
	C$glcd.h$294$2$41 ==.
;	Z:\micap\trabalho\receiver\/..\/glcd.h:294: esc_glcd(fonte[c-32][3], DA, lado);
	mov	dpl,r6
	mov	dph,r7
	inc	dptr
	inc	dptr
	inc	dptr
	clr	a
	movc	a,@a+dptr
	mov	r5,a
	setb	_esc_glcd_PARM_2
	mov	c,_putchar_lado_1_39
	mov	_esc_glcd_PARM_3,c
	mov	dpl,r5
	push	ar7
	push	ar6
	lcall	_esc_glcd
	pop	ar6
	pop	ar7
	C$glcd.h$295$2$41 ==.
;	Z:\micap\trabalho\receiver\/..\/glcd.h:295: esc_glcd(fonte[c-32][4], DA, lado);
	mov	dpl,r6
	mov	dph,r7
	inc	dptr
	inc	dptr
	inc	dptr
	inc	dptr
	clr	a
	movc	a,@a+dptr
	mov	r7,a
	setb	_esc_glcd_PARM_2
	mov	c,_putchar_lado_1_39
	mov	_esc_glcd_PARM_3,c
	mov	dpl,r7
	lcall	_esc_glcd
	C$glcd.h$296$2$41 ==.
;	Z:\micap\trabalho\receiver\/..\/glcd.h:296: esc_glcd(0x00, DA, lado);
	setb	_esc_glcd_PARM_2
	mov	c,_putchar_lado_1_39
	mov	_esc_glcd_PARM_3,c
	mov	dpl,#0x00
	lcall	_esc_glcd
	C$glcd.h$297$2$41 ==.
;	Z:\micap\trabalho\receiver\/..\/glcd.h:297: esc_glcd(0x00, DA, lado);
	setb	_esc_glcd_PARM_2
	mov	c,_putchar_lado_1_39
	mov	_esc_glcd_PARM_3,c
	mov	dpl,#0x00
	lcall	_esc_glcd
	C$glcd.h$298$2$41 ==.
;	Z:\micap\trabalho\receiver\/..\/glcd.h:298: esc_glcd(0x00, DA, lado);
	setb	_esc_glcd_PARM_2
	mov	c,_putchar_lado_1_39
	mov	_esc_glcd_PARM_3,c
	mov	dpl,#0x00
	lcall	_esc_glcd
	C$glcd.h$299$2$41 ==.
;	Z:\micap\trabalho\receiver\/..\/glcd.h:299: carac_esc++;
	inc	_carac_esc
	clr	a
	cjne	a,_carac_esc,00123$
	inc	(_carac_esc + 1)
00123$:
	C$glcd.h$301$2$41 ==.
;	Z:\micap\trabalho\receiver\/..\/glcd.h:301: if (carac_esc >= 16)
	clr	c
	mov	a,_carac_esc
	subb	a,#0x10
	mov	a,(_carac_esc + 1)
	xrl	a,#0x80
	subb	a,#0x80
	jc	00109$
	C$glcd.h$303$3$42 ==.
;	Z:\micap\trabalho\receiver\/..\/glcd.h:303: carac_esc = 0;
	clr	a
	mov	_carac_esc,a
	mov	(_carac_esc + 1),a
	C$glcd.h$304$3$42 ==.
;	Z:\micap\trabalho\receiver\/..\/glcd.h:304: conf_pag(++pag_esc, ESQ);
	inc	_pag_esc
;	genFromRTrack removed	clr	a
	cjne	a,_pag_esc,00125$
	inc	(_pag_esc + 1)
00125$:
	mov	dpl,_pag_esc
	clr	_conf_pag_PARM_2
	lcall	_conf_pag
	C$glcd.h$305$3$42 ==.
;	Z:\micap\trabalho\receiver\/..\/glcd.h:305: conf_pag(pag_esc, DIR);
	mov	dpl,_pag_esc
	setb	_conf_pag_PARM_2
	lcall	_conf_pag
	C$glcd.h$306$3$42 ==.
;	Z:\micap\trabalho\receiver\/..\/glcd.h:306: conf_Y(0, ESQ);
	clr	_conf_Y_PARM_2
	mov	dpl,#0x00
	lcall	_conf_Y
	C$glcd.h$307$3$42 ==.
;	Z:\micap\trabalho\receiver\/..\/glcd.h:307: conf_Y(0, DIR);
	setb	_conf_Y_PARM_2
	mov	dpl,#0x00
	lcall	_conf_Y
00109$:
	C$glcd.h$310$1$39 ==.
	XG$putchar$0$0 ==.
	ret
;------------------------------------------------------------
;Allocation info for local variables in function 'loading_screen'
;------------------------------------------------------------
;i                         Allocated to registers r6 r7 
;y                         Allocated to registers r2 r3 
;------------------------------------------------------------
	G$loading_screen$0$0 ==.
	C$util.h$391$1$39 ==.
;	Z:\micap\trabalho\receiver\/..\util.h:391: void loading_screen()
;	-----------------------------------------
;	 function loading_screen
;	-----------------------------------------
_loading_screen:
	C$util.h$396$2$44 ==.
;	Z:\micap\trabalho\receiver\/..\util.h:396: for(i = 0; i < 8;i++)
	mov	r6,#0x00
	mov	r7,#0x00
00110$:
	C$util.h$398$2$44 ==.
;	Z:\micap\trabalho\receiver\/..\util.h:398: conf_pag(i, ESQ);
	mov	dpl,r6
	clr	_conf_pag_PARM_2
	push	ar7
	push	ar6
	lcall	_conf_pag
	C$util.h$399$2$44 ==.
;	Z:\micap\trabalho\receiver\/..\util.h:399: conf_Y(0, ESQ);
	clr	_conf_Y_PARM_2
	mov	dpl,#0x00
	lcall	_conf_Y
	pop	ar6
	pop	ar7
	C$util.h$400$2$44 ==.
;	Z:\micap\trabalho\receiver\/..\util.h:400: for(y = 0; y < 64; y++) // Para cada linha na vertical na esquerda
	mov	ar4,r6
	mov	a,r7
	anl	a,#0x01
	mov	c,acc.0
	xch	a,r4
	rrc	a
	xch	a,r4
	rrc	a
	xch	a,r4
	mov	r5,a
	mov	r2,#0x00
	mov	r3,#0x00
00106$:
	C$util.h$401$2$44 ==.
;	Z:\micap\trabalho\receiver\/..\util.h:401: esc_glcd(samples[128*i+y], DA, ESQ);
	mov	a,r2
	add	a,r4
	mov	r0,a
	mov	a,r3
	addc	a,r5
	mov	r1,a
	mov	a,r0
	add	a,#_samples
	mov	dpl,a
	mov	a,r1
	addc	a,#(_samples >> 8)
	mov	dph,a
	clr	a
	movc	a,@a+dptr
	mov	r1,a
	setb	_esc_glcd_PARM_2
	clr	_esc_glcd_PARM_3
	mov	dpl,r1
	push	ar7
	push	ar6
	push	ar5
	push	ar4
	push	ar3
	push	ar2
	lcall	_esc_glcd
	pop	ar2
	pop	ar3
	pop	ar4
	pop	ar5
	pop	ar6
	pop	ar7
	C$util.h$400$2$44 ==.
;	Z:\micap\trabalho\receiver\/..\util.h:400: for(y = 0; y < 64; y++) // Para cada linha na vertical na esquerda
	inc	r2
	cjne	r2,#0x00,00150$
	inc	r3
00150$:
	clr	c
	mov	a,r2
	subb	a,#0x40
	mov	a,r3
	xrl	a,#0x80
	subb	a,#0x80
	jc	00106$
	C$util.h$403$2$44 ==.
;	Z:\micap\trabalho\receiver\/..\util.h:403: conf_pag(i, DIR);
	mov	dpl,r6
	setb	_conf_pag_PARM_2
	push	ar7
	push	ar6
	lcall	_conf_pag
	C$util.h$404$2$44 ==.
;	Z:\micap\trabalho\receiver\/..\util.h:404: conf_Y(0, DIR);
	setb	_conf_Y_PARM_2
	mov	dpl,#0x00
	lcall	_conf_Y
	pop	ar6
	pop	ar7
	C$util.h$405$2$44 ==.
;	Z:\micap\trabalho\receiver\/..\util.h:405: for(y = 0; y < 64; y++) // Para cada linha na vertical na direita
	mov	ar4,r6
	mov	a,r7
	anl	a,#0x01
	mov	c,acc.0
	xch	a,r4
	rrc	a
	xch	a,r4
	rrc	a
	xch	a,r4
	mov	r5,a
	mov	a,#0x40
	add	a,r4
	mov	r4,a
	clr	a
	addc	a,r5
	mov	r5,a
	mov	r2,#0x00
	mov	r3,#0x00
00108$:
	C$util.h$406$2$44 ==.
;	Z:\micap\trabalho\receiver\/..\util.h:406: esc_glcd(samples[128*i+64+y], DA, DIR);
	mov	a,r2
	add	a,r4
	mov	r0,a
	mov	a,r3
	addc	a,r5
	mov	r1,a
	mov	a,r0
	add	a,#_samples
	mov	dpl,a
	mov	a,r1
	addc	a,#(_samples >> 8)
	mov	dph,a
	clr	a
	movc	a,@a+dptr
	mov	r1,a
	setb	_esc_glcd_PARM_2
	setb	_esc_glcd_PARM_3
	mov	dpl,r1
	push	ar7
	push	ar6
	push	ar5
	push	ar4
	push	ar3
	push	ar2
	lcall	_esc_glcd
	pop	ar2
	pop	ar3
	pop	ar4
	pop	ar5
	pop	ar6
	pop	ar7
	C$util.h$405$2$44 ==.
;	Z:\micap\trabalho\receiver\/..\util.h:405: for(y = 0; y < 64; y++) // Para cada linha na vertical na direita
	inc	r2
	cjne	r2,#0x00,00152$
	inc	r3
00152$:
	clr	c
	mov	a,r2
	subb	a,#0x40
	mov	a,r3
	xrl	a,#0x80
	subb	a,#0x80
	jc	00108$
	C$util.h$396$1$43 ==.
;	Z:\micap\trabalho\receiver\/..\util.h:396: for(i = 0; i < 8;i++)
	inc	r6
	cjne	r6,#0x00,00154$
	inc	r7
00154$:
	clr	c
	mov	a,r6
	subb	a,#0x08
	mov	a,r7
	xrl	a,#0x80
	subb	a,#0x80
	jnc	00155$
	ljmp	00110$
00155$:
	C$util.h$409$1$43 ==.
;	Z:\micap\trabalho\receiver\/..\util.h:409: delay_ms(120);
	mov	dptr,#0x0078
	lcall	_delay_ms
	C$util.h$412$1$43 ==.
;	Z:\micap\trabalho\receiver\/..\util.h:412: conf_pag(7, ESQ);
	clr	_conf_pag_PARM_2
	mov	dpl,#0x07
	lcall	_conf_pag
	C$util.h$413$1$43 ==.
;	Z:\micap\trabalho\receiver\/..\util.h:413: conf_Y(13, ESQ);
	clr	_conf_Y_PARM_2
	mov	dpl,#0x0d
	lcall	_conf_Y
	C$util.h$414$1$43 ==.
;	Z:\micap\trabalho\receiver\/..\util.h:414: for(i = 13; i < 64;i++)
	mov	r6,#0x0d
	mov	r7,#0x00
00112$:
	C$util.h$416$2$45 ==.
;	Z:\micap\trabalho\receiver\/..\util.h:416: esc_glcd(0xBD, DA, ESQ);
	setb	_esc_glcd_PARM_2
	clr	_esc_glcd_PARM_3
	mov	dpl,#0xbd
	push	ar7
	push	ar6
	lcall	_esc_glcd
	C$util.h$417$2$45 ==.
;	Z:\micap\trabalho\receiver\/..\util.h:417: delay_ms(30);
	mov	dptr,#0x001e
	lcall	_delay_ms
	pop	ar6
	pop	ar7
	C$util.h$414$1$43 ==.
;	Z:\micap\trabalho\receiver\/..\util.h:414: for(i = 13; i < 64;i++)
	inc	r6
	cjne	r6,#0x00,00156$
	inc	r7
00156$:
	clr	c
	mov	a,r6
	subb	a,#0x40
	mov	a,r7
	xrl	a,#0x80
	subb	a,#0x80
	jc	00112$
	C$util.h$420$1$43 ==.
;	Z:\micap\trabalho\receiver\/..\util.h:420: conf_pag(7, DIR);
	setb	_conf_pag_PARM_2
	mov	dpl,#0x07
	lcall	_conf_pag
	C$util.h$421$1$43 ==.
;	Z:\micap\trabalho\receiver\/..\util.h:421: conf_Y(0, DIR);
	setb	_conf_Y_PARM_2
	mov	dpl,#0x00
	lcall	_conf_Y
	C$util.h$422$1$43 ==.
;	Z:\micap\trabalho\receiver\/..\util.h:422: for(i = 0; i < 51;i++)
	mov	r6,#0x00
	mov	r7,#0x00
00114$:
	C$util.h$424$2$46 ==.
;	Z:\micap\trabalho\receiver\/..\util.h:424: esc_glcd(0xBD, DA, DIR);
	setb	_esc_glcd_PARM_2
	setb	_esc_glcd_PARM_3
	mov	dpl,#0xbd
	push	ar7
	push	ar6
	lcall	_esc_glcd
	C$util.h$425$2$46 ==.
;	Z:\micap\trabalho\receiver\/..\util.h:425: delay_ms(30);
	mov	dptr,#0x001e
	lcall	_delay_ms
	pop	ar6
	pop	ar7
	C$util.h$422$1$43 ==.
;	Z:\micap\trabalho\receiver\/..\util.h:422: for(i = 0; i < 51;i++)
	inc	r6
	cjne	r6,#0x00,00158$
	inc	r7
00158$:
	clr	c
	mov	a,r6
	subb	a,#0x33
	mov	a,r7
	xrl	a,#0x80
	subb	a,#0x80
	jc	00114$
	C$util.h$427$1$43 ==.
	XG$loading_screen$0$0 ==.
	ret
;------------------------------------------------------------
;Allocation info for local variables in function 'WatchDog_Int'
;------------------------------------------------------------
	G$WatchDog_Int$0$0 ==.
	C$util.h$429$1$43 ==.
;	Z:\micap\trabalho\receiver\/..\util.h:429: void WatchDog_Int() interrupt 16 // Timer4 Overflow
;	-----------------------------------------
;	 function WatchDog_Int
;	-----------------------------------------
_WatchDog_Int:
	C$util.h$431$1$47 ==.
;	Z:\micap\trabalho\receiver\/..\util.h:431: WDTCN = 0xA5;
	mov	_WDTCN,#0xa5
	C$util.h$432$1$47 ==.
;	Z:\micap\trabalho\receiver\/..\util.h:432: TF4 = 0; // Clear flag interrupt
	clr	_TF4
	C$util.h$433$1$47 ==.
	XG$WatchDog_Int$0$0 ==.
	reti
;	eliminated unneeded mov psw,# (no regs used in bank)
;	eliminated unneeded push/pop psw
;	eliminated unneeded push/pop dpl
;	eliminated unneeded push/pop dph
;	eliminated unneeded push/pop b
;	eliminated unneeded push/pop acc
;------------------------------------------------------------
;Allocation info for local variables in function 'UART_Int'
;------------------------------------------------------------
	G$UART_Int$0$0 ==.
	C$main.c$10$1$47 ==.
;	Z:\micap\trabalho\receiver\main.c:10: void UART_Int() interrupt 4		// UART0 Interrupt
;	-----------------------------------------
;	 function UART_Int
;	-----------------------------------------
_UART_Int:
	push	acc
	push	ar7
	push	psw
	mov	psw,#0x00
	C$main.c$12$1$61 ==.
;	Z:\micap\trabalho\receiver\main.c:12: if(RI0) 						// Se recebeu um byte
	jnb	_RI0,00106$
	C$main.c$14$2$62 ==.
;	Z:\micap\trabalho\receiver\main.c:14: if(SBUF0 >= 0x40) 	// E se o byte for o mais significativo do ADC
	mov	a,#0x100 - 0x40
	add	a,_SBUF0
	jnc	00102$
	C$main.c$16$3$63 ==.
;	Z:\micap\trabalho\receiver\main.c:16: sbufH = SBUF0;
	mov	_sbufH,_SBUF0
	C$main.c$17$3$63 ==.
;	Z:\micap\trabalho\receiver\main.c:17: byteH = (SBUF0 >> 2) & 0x0F;
	mov	a,_SBUF0
	rr	a
	rr	a
	anl	a,#0x3f
	mov	r7,a
	mov	a,#0x0f
	anl	a,r7
	mov	_byteH,a
	C$main.c$18$3$63 ==.
;	Z:\micap\trabalho\receiver\main.c:18: byteL = byteL | (SBUF0 << 6);
	mov	a,_SBUF0
	rr	a
	rr	a
	anl	a,#0xc0
	mov	r7,a
	orl	_byteL,a
	sjmp	00103$
00102$:
	C$main.c$21$2$62 ==.
;	Z:\micap\trabalho\receiver\main.c:21: byteL = SBUF0 | (sbufH << 6);
	mov	a,_sbufH
	rr	a
	rr	a
	anl	a,#0xc0
	mov	r7,a
	orl	a,_SBUF0
	mov	_byteL,a
00103$:
	C$main.c$23$2$62 ==.
;	Z:\micap\trabalho\receiver\main.c:23: RI0 = 0; // Zera flag de interrupo
	clr	_RI0
00106$:
	pop	psw
	pop	ar7
	pop	acc
	C$main.c$25$1$61 ==.
	XG$UART_Int$0$0 ==.
	reti
;	eliminated unneeded push/pop dpl
;	eliminated unneeded push/pop dph
;	eliminated unneeded push/pop b
;------------------------------------------------------------
;Allocation info for local variables in function 'Timer2_Int'
;------------------------------------------------------------
	G$Timer2_Int$0$0 ==.
	C$main.c$27$1$61 ==.
;	Z:\micap\trabalho\receiver\main.c:27: void Timer2_Int() interrupt 5
;	-----------------------------------------
;	 function Timer2_Int
;	-----------------------------------------
_Timer2_Int:
	C$main.c$29$1$64 ==.
;	Z:\micap\trabalho\receiver\main.c:29: DAC0L = byteL;
	mov	_DAC0L,_byteL
	C$main.c$30$1$64 ==.
;	Z:\micap\trabalho\receiver\main.c:30: DAC0H = byteH;
	mov	_DAC0H,_byteH
	C$main.c$32$1$64 ==.
;	Z:\micap\trabalho\receiver\main.c:32: TF2 = 0; // Limpa flag de interrupo do Timer2
	clr	_TF2
	C$main.c$33$1$64 ==.
	XG$Timer2_Int$0$0 ==.
	reti
;	eliminated unneeded mov psw,# (no regs used in bank)
;	eliminated unneeded push/pop psw
;	eliminated unneeded push/pop dpl
;	eliminated unneeded push/pop dph
;	eliminated unneeded push/pop b
;	eliminated unneeded push/pop acc
;------------------------------------------------------------
;Allocation info for local variables in function 'main'
;------------------------------------------------------------
	G$main$0$0 ==.
	C$main.c$35$1$64 ==.
;	Z:\micap\trabalho\receiver\main.c:35: void main()
;	-----------------------------------------
;	 function main
;	-----------------------------------------
_main:
	C$main.c$37$1$65 ==.
;	Z:\micap\trabalho\receiver\main.c:37: Init_Device();
	lcall	_Init_Device
	C$main.c$38$1$65 ==.
;	Z:\micap\trabalho\receiver\main.c:38: SFRPAGE = LEGACY_PAGE;
	mov	_SFRPAGE,#0x00
	C$main.c$40$1$65 ==.
;	Z:\micap\trabalho\receiver\main.c:40: glcd_init(); 						// Inicializao do GLCD
	lcall	_glcd_init
	C$main.c$41$1$65 ==.
;	Z:\micap\trabalho\receiver\main.c:41: limpa_glcd(ESQ); limpa_glcd(DIR);	// Limpa display GLCD
	clr	_limpa_glcd_PARM_1
	lcall	_limpa_glcd
	setb	_limpa_glcd_PARM_1
	lcall	_limpa_glcd
	C$main.c$43$1$65 ==.
;	Z:\micap\trabalho\receiver\main.c:43: loading_screen();
	lcall	_loading_screen
	C$main.c$44$1$65 ==.
;	Z:\micap\trabalho\receiver\main.c:44: limpa_glcd(ESQ); limpa_glcd(DIR);	// Limpa display GLCD
	clr	_limpa_glcd_PARM_1
	lcall	_limpa_glcd
	setb	_limpa_glcd_PARM_1
	lcall	_limpa_glcd
	C$main.c$46$1$65 ==.
;	Z:\micap\trabalho\receiver\main.c:46: printf_fast_f("\02 RECEIVER");
	mov	a,#___str_0
	push	acc
	mov	a,#(___str_0 >> 8)
	push	acc
	lcall	_printf_fast_f
	dec	sp
	dec	sp
	C$main.c$48$1$65 ==.
;	Z:\micap\trabalho\receiver\main.c:48: IE |= 0x10; 								// Habilita Interrupo UART0
	orl	_IE,#0x10
	C$main.c$50$1$65 ==.
;	Z:\micap\trabalho\receiver\main.c:50: while(1)
00104$:
	C$main.c$52$2$66 ==.
;	Z:\micap\trabalho\receiver\main.c:52: if(!P0_2)
	jb	_P0_2,00104$
	C$main.c$55$3$67 ==.
;	Z:\micap\trabalho\receiver\main.c:55: limpa_linha_glcd(4);
	mov	dpl,#0x04
	lcall	_limpa_linha_glcd
	C$main.c$56$3$67 ==.
;	Z:\micap\trabalho\receiver\main.c:56: limpa_linha_glcd(5);
	mov	dpl,#0x05
	lcall	_limpa_linha_glcd
	C$main.c$57$3$67 ==.
;	Z:\micap\trabalho\receiver\main.c:57: limpa_linha_glcd(6);
	mov	dpl,#0x06
	lcall	_limpa_linha_glcd
	C$main.c$58$3$67 ==.
;	Z:\micap\trabalho\receiver\main.c:58: limpa_linha_glcd(7);
	mov	dpl,#0x07
	lcall	_limpa_linha_glcd
	C$main.c$60$3$67 ==.
;	Z:\micap\trabalho\receiver\main.c:60: printf_fast_f("\04 UART  = 0x%x", SBUF0);
	mov	r6,_SBUF0
	mov	r7,#0x00
	push	ar6
	push	ar7
	mov	a,#___str_1
	push	acc
	mov	a,#(___str_1 >> 8)
	push	acc
	lcall	_printf_fast_f
	mov	a,sp
	add	a,#0xfc
	mov	sp,a
	C$main.c$61$3$67 ==.
;	Z:\micap\trabalho\receiver\main.c:61: printf_fast_f("\05 byteL = 0x%x", byteL);
	mov	r6,_byteL
	mov	r7,#0x00
	push	ar6
	push	ar7
	mov	a,#___str_2
	push	acc
	mov	a,#(___str_2 >> 8)
	push	acc
	lcall	_printf_fast_f
	mov	a,sp
	add	a,#0xfc
	mov	sp,a
	C$main.c$62$3$67 ==.
;	Z:\micap\trabalho\receiver\main.c:62: printf_fast_f("\06 byteH = 0x%x", byteH);
	mov	r6,_byteH
	mov	r7,#0x00
	push	ar6
	push	ar7
	mov	a,#___str_3
	push	acc
	mov	a,#(___str_3 >> 8)
	push	acc
	lcall	_printf_fast_f
	mov	a,sp
	add	a,#0xfc
	mov	sp,a
	C$main.c$63$3$67 ==.
;	Z:\micap\trabalho\receiver\main.c:63: printf_fast_f("\07 ADC   = %d ", byteH*256 + byteL);
	mov	r7,_byteH
	mov	r6,#0x00
	mov	r4,_byteL
	mov	r5,#0x00
	mov	a,r4
	add	a,r6
	mov	r6,a
	mov	a,r5
	addc	a,r7
	mov	r7,a
	push	ar6
	push	ar7
	mov	a,#___str_4
	push	acc
	mov	a,#(___str_4 >> 8)
	push	acc
	lcall	_printf_fast_f
	mov	a,sp
	add	a,#0xfc
	mov	sp,a
	ljmp	00104$
	C$main.c$66$1$65 ==.
	XG$main$0$0 ==.
	ret
	.area CSEG    (CODE)
	.area CONST   (CODE)
G$samples$0$0 == .
_samples:
	.db #0x00	; 0
	.db #0x00	; 0
	.db #0x00	; 0
	.db #0x00	; 0
	.db #0x00	; 0
	.db #0x00	; 0
	.db #0x00	; 0
	.db #0x00	; 0
	.db #0x00	; 0
	.db #0x00	; 0
	.db #0x00	; 0
	.db #0x00	; 0
	.db #0x00	; 0
	.db #0x00	; 0
	.db #0x00	; 0
	.db #0x00	; 0
	.db #0x00	; 0
	.db #0x00	; 0
	.db #0x00	; 0
	.db #0x00	; 0
	.db #0x00	; 0
	.db #0x00	; 0
	.db #0x00	; 0
	.db #0x00	; 0
	.db #0x00	; 0
	.db #0x00	; 0
	.db #0x00	; 0
	.db #0x00	; 0
	.db #0x00	; 0
	.db #0x00	; 0
	.db #0x00	; 0
	.db #0x00	; 0
	.db #0x00	; 0
	.db #0x00	; 0
	.db #0x00	; 0
	.db #0x00	; 0
	.db #0x00	; 0
	.db #0x00	; 0
	.db #0x00	; 0
	.db #0x00	; 0
	.db #0x00	; 0
	.db #0x00	; 0
	.db #0x00	; 0
	.db #0x00	; 0
	.db #0x00	; 0
	.db #0x00	; 0
	.db #0xc0	; 192
	.db #0x38	; 56	'8'
	.db #0x04	; 4
	.db #0x1e	; 30
	.db #0x36	; 54	'6'
	.db #0x6c	; 108	'l'
	.db #0xd8	; 216
	.db #0xb0	; 176
	.db #0xe0	; 224
	.db #0x60	; 96
	.db #0x60	; 96
	.db #0x20	; 32
	.db #0x20	; 32
	.db #0x38	; 56	'8'
	.db #0x10	; 16
	.db #0x18	; 24
	.db #0x18	; 24
	.db #0x08	; 8
	.db #0x10	; 16
	.db #0x18	; 24
	.db #0x18	; 24
	.db #0x10	; 16
	.db #0x18	; 24
	.db #0x10	; 16
	.db #0x10	; 16
	.db #0x20	; 32
	.db #0x40	; 64
	.db #0x40	; 64
	.db #0x70	; 112	'p'
	.db #0xd0	; 208
	.db #0xc8	; 200
	.db #0x74	; 116	't'
	.db #0x0e	; 14
	.db #0x06	; 6
	.db #0x06	; 6
	.db #0x7e	; 126
	.db #0xc0	; 192
	.db #0x00	; 0
	.db #0x00	; 0
	.db #0x00	; 0
	.db #0x00	; 0
	.db #0x00	; 0
	.db #0x00	; 0
	.db #0x00	; 0
	.db #0x00	; 0
	.db #0x00	; 0
	.db #0x00	; 0
	.db #0x00	; 0
	.db #0x00	; 0
	.db #0x00	; 0
	.db #0x00	; 0
	.db #0x00	; 0
	.db #0x00	; 0
	.db #0x00	; 0
	.db #0x00	; 0
	.db #0x00	; 0
	.db #0x00	; 0
	.db #0x00	; 0
	.db #0x00	; 0
	.db #0x00	; 0
	.db #0x00	; 0
	.db #0x00	; 0
	.db #0x00	; 0
	.db #0x00	; 0
	.db #0x00	; 0
	.db #0x00	; 0
	.db #0x00	; 0
	.db #0x00	; 0
	.db #0x00	; 0
	.db #0x00	; 0
	.db #0x00	; 0
	.db #0x00	; 0
	.db #0x00	; 0
	.db #0x00	; 0
	.db #0x00	; 0
	.db #0x00	; 0
	.db #0x00	; 0
	.db #0x00	; 0
	.db #0x00	; 0
	.db #0x00	; 0
	.db #0x00	; 0
	.db #0x00	; 0
	.db #0x00	; 0
	.db #0x00	; 0
	.db #0x00	; 0
	.db #0x00	; 0
	.db #0x00	; 0
	.db #0x00	; 0
	.db #0x00	; 0
	.db #0x00	; 0
	.db #0x00	; 0
	.db #0x00	; 0
	.db #0x00	; 0
	.db #0x00	; 0
	.db #0x00	; 0
	.db #0x00	; 0
	.db #0x00	; 0
	.db #0x00	; 0
	.db #0x00	; 0
	.db #0x00	; 0
	.db #0x00	; 0
	.db #0x00	; 0
	.db #0x00	; 0
	.db #0x00	; 0
	.db #0x00	; 0
	.db #0x00	; 0
	.db #0x00	; 0
	.db #0x00	; 0
	.db #0x00	; 0
	.db #0x00	; 0
	.db #0x00	; 0
	.db #0x00	; 0
	.db #0x00	; 0
	.db #0x00	; 0
	.db #0x00	; 0
	.db #0x00	; 0
	.db #0x00	; 0
	.db #0x00	; 0
	.db #0x00	; 0
	.db #0x00	; 0
	.db #0x00	; 0
	.db #0x00	; 0
	.db #0x00	; 0
	.db #0x00	; 0
	.db #0x00	; 0
	.db #0x00	; 0
	.db #0x00	; 0
	.db #0x80	; 128
	.db #0xdf	; 223
	.db #0xd0	; 208
	.db #0xd8	; 216
	.db #0xc4	; 196
	.db #0xc2	; 194
	.db #0x85	; 133
	.db #0x09	; 9
	.db #0xd0	; 208
	.db #0x00	; 0
	.db #0x00	; 0
	.db #0x00	; 0
	.db #0x00	; 0
	.db #0x00	; 0
	.db #0x00	; 0
	.db #0x00	; 0
	.db #0x20	; 32
	.db #0xc0	; 192
	.db #0x20	; 32
	.db #0x00	; 0
	.db #0x0c	; 12
	.db #0x30	; 48	'0'
	.db #0x40	; 64
	.db #0x80	; 128
	.db #0x00	; 0
	.db #0x80	; 128
	.db #0x00	; 0
	.db #0x00	; 0
	.db #0x00	; 0
	.db #0x20	; 32
	.db #0x10	; 16
	.db #0xe0	; 224
	.db #0x19	; 25
	.db #0x86	; 134
	.db #0xcc	; 204
	.db #0xd0	; 208
	.db #0xde	; 222
	.db #0x87	; 135
	.db #0x80	; 128
	.db #0x00	; 0
	.db #0x00	; 0
	.db #0x00	; 0
	.db #0x00	; 0
	.db #0x00	; 0
	.db #0x00	; 0
	.db #0x00	; 0
	.db #0x00	; 0
	.db #0x00	; 0
	.db #0x00	; 0
	.db #0x00	; 0
	.db #0x00	; 0
	.db #0x00	; 0
	.db #0x00	; 0
	.db #0x00	; 0
	.db #0x00	; 0
	.db #0x00	; 0
	.db #0x00	; 0
	.db #0x00	; 0
	.db #0x00	; 0
	.db #0x00	; 0
	.db #0x00	; 0
	.db #0x00	; 0
	.db #0x00	; 0
	.db #0x00	; 0
	.db #0x00	; 0
	.db #0x00	; 0
	.db #0x00	; 0
	.db #0x00	; 0
	.db #0x00	; 0
	.db #0x00	; 0
	.db #0x00	; 0
	.db #0x00	; 0
	.db #0x00	; 0
	.db #0x00	; 0
	.db #0x00	; 0
	.db #0x00	; 0
	.db #0x00	; 0
	.db #0x00	; 0
	.db #0x00	; 0
	.db #0x00	; 0
	.db #0x00	; 0
	.db #0x00	; 0
	.db #0x00	; 0
	.db #0x00	; 0
	.db #0x00	; 0
	.db #0x00	; 0
	.db #0x00	; 0
	.db #0x00	; 0
	.db #0x00	; 0
	.db #0x00	; 0
	.db #0x00	; 0
	.db #0x00	; 0
	.db #0x00	; 0
	.db #0x00	; 0
	.db #0x00	; 0
	.db #0x00	; 0
	.db #0x00	; 0
	.db #0x00	; 0
	.db #0x00	; 0
	.db #0x00	; 0
	.db #0x00	; 0
	.db #0x00	; 0
	.db #0x00	; 0
	.db #0x00	; 0
	.db #0x00	; 0
	.db #0x00	; 0
	.db #0x00	; 0
	.db #0x00	; 0
	.db #0x00	; 0
	.db #0x00	; 0
	.db #0x00	; 0
	.db #0x00	; 0
	.db #0x00	; 0
	.db #0x00	; 0
	.db #0x00	; 0
	.db #0x00	; 0
	.db #0x00	; 0
	.db #0x00	; 0
	.db #0x00	; 0
	.db #0x00	; 0
	.db #0x00	; 0
	.db #0x00	; 0
	.db #0x00	; 0
	.db #0x00	; 0
	.db #0x00	; 0
	.db #0x00	; 0
	.db #0x00	; 0
	.db #0x00	; 0
	.db #0x60	; 96
	.db #0x38	; 56	'8'
	.db #0x09	; 9
	.db #0x8b	; 139
	.db #0xeb	; 235
	.db #0x3b	; 59
	.db #0x1b	; 27
	.db #0x02	; 2
	.db #0x01	; 1
	.db #0x00	; 0
	.db #0x80	; 128
	.db #0x40	; 64
	.db #0x30	; 48	'0'
	.db #0x10	; 16
	.db #0x0c	; 12
	.db #0x06	; 6
	.db #0x01	; 1
	.db #0x00	; 0
	.db #0x00	; 0
	.db #0x00	; 0
	.db #0x00	; 0
	.db #0x00	; 0
	.db #0x00	; 0
	.db #0x02	; 2
	.db #0x0e	; 14
	.db #0x11	; 17
	.db #0x60	; 96
	.db #0xc0	; 192
	.db #0x00	; 0
	.db #0x00	; 0
	.db #0x00	; 0
	.db #0x02	; 2
	.db #0x1b	; 27
	.db #0x73	; 115	's'
	.db #0xc3	; 195
	.db #0x03	; 3
	.db #0x1b	; 27
	.db #0x61	; 97	'a'
	.db #0xc0	; 192
	.db #0x00	; 0
	.db #0x00	; 0
	.db #0x00	; 0
	.db #0x00	; 0
	.db #0x00	; 0
	.db #0x00	; 0
	.db #0x00	; 0
	.db #0x00	; 0
	.db #0x00	; 0
	.db #0x00	; 0
	.db #0x00	; 0
	.db #0x00	; 0
	.db #0x00	; 0
	.db #0x00	; 0
	.db #0x00	; 0
	.db #0x00	; 0
	.db #0x00	; 0
	.db #0x00	; 0
	.db #0x00	; 0
	.db #0x00	; 0
	.db #0x00	; 0
	.db #0x00	; 0
	.db #0x00	; 0
	.db #0x00	; 0
	.db #0x00	; 0
	.db #0x00	; 0
	.db #0x00	; 0
	.db #0x00	; 0
	.db #0x00	; 0
	.db #0x00	; 0
	.db #0x00	; 0
	.db #0x00	; 0
	.db #0x00	; 0
	.db #0x00	; 0
	.db #0x00	; 0
	.db #0x00	; 0
	.db #0x00	; 0
	.db #0x00	; 0
	.db #0x00	; 0
	.db #0x00	; 0
	.db #0x00	; 0
	.db #0x00	; 0
	.db #0x00	; 0
	.db #0x00	; 0
	.db #0x00	; 0
	.db #0x00	; 0
	.db #0x00	; 0
	.db #0x00	; 0
	.db #0x00	; 0
	.db #0x00	; 0
	.db #0x00	; 0
	.db #0x00	; 0
	.db #0x00	; 0
	.db #0x00	; 0
	.db #0x00	; 0
	.db #0x00	; 0
	.db #0x00	; 0
	.db #0x00	; 0
	.db #0x00	; 0
	.db #0x00	; 0
	.db #0x00	; 0
	.db #0x00	; 0
	.db #0x00	; 0
	.db #0x00	; 0
	.db #0x00	; 0
	.db #0x00	; 0
	.db #0x00	; 0
	.db #0x00	; 0
	.db #0x00	; 0
	.db #0x00	; 0
	.db #0x00	; 0
	.db #0x00	; 0
	.db #0x00	; 0
	.db #0x00	; 0
	.db #0x00	; 0
	.db #0x00	; 0
	.db #0x00	; 0
	.db #0x00	; 0
	.db #0x00	; 0
	.db #0x00	; 0
	.db #0x00	; 0
	.db #0x00	; 0
	.db #0x00	; 0
	.db #0x00	; 0
	.db #0x80	; 128
	.db #0x18	; 24
	.db #0x0c	; 12
	.db #0x02	; 2
	.db #0xa1	; 161
	.db #0x70	; 112	'p'
	.db #0x38	; 56	'8'
	.db #0x04	; 4
	.db #0x07	; 7
	.db #0x03	; 3
	.db #0x00	; 0
	.db #0x00	; 0
	.db #0xc0	; 192
	.db #0x26	; 38
	.db #0x74	; 116	't'
	.db #0xf9	; 249
	.db #0xf8	; 248
	.db #0xf8	; 248
	.db #0x70	; 112	'p'
	.db #0x20	; 32
	.db #0x00	; 0
	.db #0x00	; 0
	.db #0x00	; 0
	.db #0x00	; 0
	.db #0x00	; 0
	.db #0x00	; 0
	.db #0x00	; 0
	.db #0x00	; 0
	.db #0x20	; 32
	.db #0x70	; 112	'p'
	.db #0xf8	; 248
	.db #0xf8	; 248
	.db #0xf8	; 248
	.db #0x77	; 119	'w'
	.db #0x04	; 4
	.db #0x78	; 120	'x'
	.db #0x00	; 0
	.db #0x00	; 0
	.db #0x00	; 0
	.db #0x01	; 1
	.db #0x03	; 3
	.db #0x04	; 4
	.db #0x98	; 152
	.db #0x70	; 112	'p'
	.db #0x8d	; 141
	.db #0x38	; 56	'8'
	.db #0x20	; 32
	.db #0x00	; 0
	.db #0x00	; 0
	.db #0x00	; 0
	.db #0x00	; 0
	.db #0x00	; 0
	.db #0x00	; 0
	.db #0x00	; 0
	.db #0x00	; 0
	.db #0x00	; 0
	.db #0x00	; 0
	.db #0x00	; 0
	.db #0x00	; 0
	.db #0x00	; 0
	.db #0x00	; 0
	.db #0x00	; 0
	.db #0x00	; 0
	.db #0x00	; 0
	.db #0x00	; 0
	.db #0x00	; 0
	.db #0x00	; 0
	.db #0x00	; 0
	.db #0x00	; 0
	.db #0x00	; 0
	.db #0x00	; 0
	.db #0x00	; 0
	.db #0x00	; 0
	.db #0x00	; 0
	.db #0x00	; 0
	.db #0x00	; 0
	.db #0x00	; 0
	.db #0x00	; 0
	.db #0x00	; 0
	.db #0x00	; 0
	.db #0x00	; 0
	.db #0x00	; 0
	.db #0x00	; 0
	.db #0x00	; 0
	.db #0x00	; 0
	.db #0x00	; 0
	.db #0x00	; 0
	.db #0x00	; 0
	.db #0x00	; 0
	.db #0x00	; 0
	.db #0x00	; 0
	.db #0x00	; 0
	.db #0x00	; 0
	.db #0x00	; 0
	.db #0x00	; 0
	.db #0x00	; 0
	.db #0x00	; 0
	.db #0x00	; 0
	.db #0x00	; 0
	.db #0x00	; 0
	.db #0x00	; 0
	.db #0x00	; 0
	.db #0x00	; 0
	.db #0x00	; 0
	.db #0x00	; 0
	.db #0x00	; 0
	.db #0x00	; 0
	.db #0x00	; 0
	.db #0x00	; 0
	.db #0x00	; 0
	.db #0x00	; 0
	.db #0x00	; 0
	.db #0x00	; 0
	.db #0x00	; 0
	.db #0x00	; 0
	.db #0x00	; 0
	.db #0x00	; 0
	.db #0x00	; 0
	.db #0x00	; 0
	.db #0x00	; 0
	.db #0x00	; 0
	.db #0x00	; 0
	.db #0x00	; 0
	.db #0x00	; 0
	.db #0xc0	; 192
	.db #0x70	; 112	'p'
	.db #0x1c	; 28
	.db #0x0e	; 14
	.db #0x07	; 7
	.db #0x00	; 0
	.db #0x38	; 56	'8'
	.db #0xc6	; 198
	.db #0xc2	; 194
	.db #0x00	; 0
	.db #0x00	; 0
	.db #0x00	; 0
	.db #0x00	; 0
	.db #0x00	; 0
	.db #0x00	; 0
	.db #0x00	; 0
	.db #0x03	; 3
	.db #0xfc	; 252
	.db #0xc0	; 192
	.db #0x40	; 64
	.db #0x40	; 64
	.db #0x00	; 0
	.db #0x03	; 3
	.db #0x03	; 3
	.db #0x04	; 4
	.db #0x08	; 8
	.db #0x38	; 56	'8'
	.db #0xe0	; 224
	.db #0x20	; 32
	.db #0x18	; 24
	.db #0x0c	; 12
	.db #0x04	; 4
	.db #0x43	; 67	'C'
	.db #0x41	; 65	'A'
	.db #0x40	; 64
	.db #0x40	; 64
	.db #0x42	; 66	'B'
	.db #0xe2	; 226
	.db #0x1e	; 30
	.db #0x00	; 0
	.db #0x00	; 0
	.db #0x00	; 0
	.db #0x00	; 0
	.db #0x00	; 0
	.db #0x00	; 0
	.db #0x00	; 0
	.db #0x01	; 1
	.db #0x0e	; 14
	.db #0x0f	; 15
	.db #0x06	; 6
	.db #0x00	; 0
	.db #0x01	; 1
	.db #0x06	; 6
	.db #0x3c	; 60
	.db #0xf0	; 240
	.db #0xc0	; 192
	.db #0x80	; 128
	.db #0x00	; 0
	.db #0x00	; 0
	.db #0x00	; 0
	.db #0x00	; 0
	.db #0x00	; 0
	.db #0x00	; 0
	.db #0x00	; 0
	.db #0x00	; 0
	.db #0x00	; 0
	.db #0x00	; 0
	.db #0x00	; 0
	.db #0x00	; 0
	.db #0x00	; 0
	.db #0x00	; 0
	.db #0x00	; 0
	.db #0x00	; 0
	.db #0x00	; 0
	.db #0x00	; 0
	.db #0x00	; 0
	.db #0x00	; 0
	.db #0x00	; 0
	.db #0x00	; 0
	.db #0x00	; 0
	.db #0x00	; 0
	.db #0x00	; 0
	.db #0x00	; 0
	.db #0x00	; 0
	.db #0x00	; 0
	.db #0x00	; 0
	.db #0x00	; 0
	.db #0x00	; 0
	.db #0x00	; 0
	.db #0x00	; 0
	.db #0x00	; 0
	.db #0x00	; 0
	.db #0x00	; 0
	.db #0x00	; 0
	.db #0x00	; 0
	.db #0x00	; 0
	.db #0x00	; 0
	.db #0x00	; 0
	.db #0x00	; 0
	.db #0x00	; 0
	.db #0x00	; 0
	.db #0x00	; 0
	.db #0x00	; 0
	.db #0x00	; 0
	.db #0x00	; 0
	.db #0x00	; 0
	.db #0x00	; 0
	.db #0x00	; 0
	.db #0x00	; 0
	.db #0x00	; 0
	.db #0x00	; 0
	.db #0x00	; 0
	.db #0x00	; 0
	.db #0x00	; 0
	.db #0x00	; 0
	.db #0x00	; 0
	.db #0x00	; 0
	.db #0x00	; 0
	.db #0x00	; 0
	.db #0x00	; 0
	.db #0x00	; 0
	.db #0x00	; 0
	.db #0x00	; 0
	.db #0x00	; 0
	.db #0x00	; 0
	.db #0x98	; 152
	.db #0x0c	; 12
	.db #0xe4	; 228
	.db #0x24	; 36
	.db #0x00	; 0
	.db #0x00	; 0
	.db #0x00	; 0
	.db #0x00	; 0
	.db #0x00	; 0
	.db #0x36	; 54	'6'
	.db #0x19	; 25
	.db #0x8d	; 141
	.db #0x00	; 0
	.db #0x00	; 0
	.db #0x00	; 0
	.db #0x00	; 0
	.db #0x00	; 0
	.db #0xc0	; 192
	.db #0x40	; 64
	.db #0x20	; 32
	.db #0x3f	; 63
	.db #0x64	; 100	'd'
	.db #0x80	; 128
	.db #0x00	; 0
	.db #0x00	; 0
	.db #0x00	; 0
	.db #0x00	; 0
	.db #0x00	; 0
	.db #0x00	; 0
	.db #0x86	; 134
	.db #0xff	; 255
	.db #0xa0	; 160
	.db #0x00	; 0
	.db #0x00	; 0
	.db #0x00	; 0
	.db #0x00	; 0
	.db #0x80	; 128
	.db #0x84	; 132
	.db #0x84	; 132
	.db #0xe4	; 228
	.db #0x3f	; 63
	.db #0x00	; 0
	.db #0x00	; 0
	.db #0x00	; 0
	.db #0x00	; 0
	.db #0x80	; 128
	.db #0x00	; 0
	.db #0x80	; 128
	.db #0x30	; 48	'0'
	.db #0x10	; 16
	.db #0xf8	; 248
	.db #0x20	; 32
	.db #0x1f	; 31
	.db #0x00	; 0
	.db #0x00	; 0
	.db #0x00	; 0
	.db #0x00	; 0
	.db #0x00	; 0
	.db #0x03	; 3
	.db #0x9f	; 159
	.db #0xe0	; 224
	.db #0x00	; 0
	.db #0x00	; 0
	.db #0x00	; 0
	.db #0x00	; 0
	.db #0x00	; 0
	.db #0x00	; 0
	.db #0x00	; 0
	.db #0x00	; 0
	.db #0x00	; 0
	.db #0x00	; 0
	.db #0x00	; 0
	.db #0x00	; 0
	.db #0x00	; 0
	.db #0x00	; 0
	.db #0x00	; 0
	.db #0x00	; 0
	.db #0x00	; 0
	.db #0x00	; 0
	.db #0x00	; 0
	.db #0x00	; 0
	.db #0x00	; 0
	.db #0x00	; 0
	.db #0x00	; 0
	.db #0x00	; 0
	.db #0x00	; 0
	.db #0x00	; 0
	.db #0x00	; 0
	.db #0x00	; 0
	.db #0x00	; 0
	.db #0x00	; 0
	.db #0x00	; 0
	.db #0x00	; 0
	.db #0x00	; 0
	.db #0x00	; 0
	.db #0x00	; 0
	.db #0x00	; 0
	.db #0x00	; 0
	.db #0x00	; 0
	.db #0x00	; 0
	.db #0x00	; 0
	.db #0x00	; 0
	.db #0x00	; 0
	.db #0x00	; 0
	.db #0x00	; 0
	.db #0x00	; 0
	.db #0x00	; 0
	.db #0x00	; 0
	.db #0x00	; 0
	.db #0x00	; 0
	.db #0x00	; 0
	.db #0x00	; 0
	.db #0x00	; 0
	.db #0x00	; 0
	.db #0x00	; 0
	.db #0x00	; 0
	.db #0x00	; 0
	.db #0x00	; 0
	.db #0x00	; 0
	.db #0x00	; 0
	.db #0x00	; 0
	.db #0x00	; 0
	.db #0x00	; 0
	.db #0x00	; 0
	.db #0x00	; 0
	.db #0x00	; 0
	.db #0x00	; 0
	.db #0x00	; 0
	.db #0x03	; 3
	.db #0x02	; 2
	.db #0x01	; 1
	.db #0x00	; 0
	.db #0x00	; 0
	.db #0x00	; 0
	.db #0x00	; 0
	.db #0x00	; 0
	.db #0x00	; 0
	.db #0x00	; 0
	.db #0x00	; 0
	.db #0x07	; 7
	.db #0x04	; 4
	.db #0x00	; 0
	.db #0x00	; 0
	.db #0x00	; 0
	.db #0x01	; 1
	.db #0x00	; 0
	.db #0x00	; 0
	.db #0x18	; 24
	.db #0x10	; 16
	.db #0x30	; 48	'0'
	.db #0x20	; 32
	.db #0x21	; 33
	.db #0x01	; 1
	.db #0x03	; 3
	.db #0x63	; 99	'c'
	.db #0x43	; 67	'C'
	.db #0x03	; 3
	.db #0x03	; 3
	.db #0x02	; 2
	.db #0x03	; 3
	.db #0x03	; 3
	.db #0x03	; 3
	.db #0x33	; 51	'3'
	.db #0x03	; 3
	.db #0x43	; 67	'C'
	.db #0x31	; 49	'1'
	.db #0x09	; 9
	.db #0x30	; 48	'0'
	.db #0x00	; 0
	.db #0x00	; 0
	.db #0x00	; 0
	.db #0x18	; 24
	.db #0x0c	; 12
	.db #0x07	; 7
	.db #0x06	; 6
	.db #0x01	; 1
	.db #0x00	; 0
	.db #0x01	; 1
	.db #0x00	; 0
	.db #0x00	; 0
	.db #0x00	; 0
	.db #0x00	; 0
	.db #0x00	; 0
	.db #0x00	; 0
	.db #0x00	; 0
	.db #0x00	; 0
	.db #0x00	; 0
	.db #0x00	; 0
	.db #0x03	; 3
	.db #0x06	; 6
	.db #0x18	; 24
	.db #0x00	; 0
	.db #0x00	; 0
	.db #0x00	; 0
	.db #0x00	; 0
	.db #0x00	; 0
	.db #0x00	; 0
	.db #0x00	; 0
	.db #0x00	; 0
	.db #0x00	; 0
	.db #0x00	; 0
	.db #0x00	; 0
	.db #0x00	; 0
	.db #0x00	; 0
	.db #0x00	; 0
	.db #0x00	; 0
	.db #0x00	; 0
	.db #0x00	; 0
	.db #0x00	; 0
	.db #0x00	; 0
	.db #0x00	; 0
	.db #0x00	; 0
	.db #0x00	; 0
	.db #0x00	; 0
	.db #0x00	; 0
	.db #0x00	; 0
	.db #0x00	; 0
	.db #0x00	; 0
	.db #0x00	; 0
	.db #0x00	; 0
	.db #0x00	; 0
	.db #0x00	; 0
	.db #0x00	; 0
	.db #0x00	; 0
	.db #0x00	; 0
	.db #0x00	; 0
	.db #0x00	; 0
	.db #0x00	; 0
	.db #0x00	; 0
	.db #0x00	; 0
	.db #0x00	; 0
	.db #0x00	; 0
	.db #0x00	; 0
	.db #0xff	; 255
	.db #0x81	; 129
	.db #0x81	; 129
	.db #0x81	; 129
	.db #0x81	; 129
	.db #0x81	; 129
	.db #0x81	; 129
	.db #0x81	; 129
	.db #0x81	; 129
	.db #0x81	; 129
	.db #0x81	; 129
	.db #0x81	; 129
	.db #0x81	; 129
	.db #0x81	; 129
	.db #0x81	; 129
	.db #0x81	; 129
	.db #0x81	; 129
	.db #0x81	; 129
	.db #0x81	; 129
	.db #0x81	; 129
	.db #0x81	; 129
	.db #0x81	; 129
	.db #0x81	; 129
	.db #0x81	; 129
	.db #0x81	; 129
	.db #0x81	; 129
	.db #0x81	; 129
	.db #0x81	; 129
	.db #0x81	; 129
	.db #0x81	; 129
	.db #0x81	; 129
	.db #0x81	; 129
	.db #0x81	; 129
	.db #0x81	; 129
	.db #0x81	; 129
	.db #0x81	; 129
	.db #0x81	; 129
	.db #0x81	; 129
	.db #0x81	; 129
	.db #0x81	; 129
	.db #0x81	; 129
	.db #0x81	; 129
	.db #0x81	; 129
	.db #0x81	; 129
	.db #0x81	; 129
	.db #0x81	; 129
	.db #0x81	; 129
	.db #0x81	; 129
	.db #0x81	; 129
	.db #0x81	; 129
	.db #0x81	; 129
	.db #0x81	; 129
	.db #0x81	; 129
	.db #0x81	; 129
	.db #0x81	; 129
	.db #0x81	; 129
	.db #0x81	; 129
	.db #0x81	; 129
	.db #0x81	; 129
	.db #0x81	; 129
	.db #0x81	; 129
	.db #0x81	; 129
	.db #0x81	; 129
	.db #0x81	; 129
	.db #0x81	; 129
	.db #0x81	; 129
	.db #0x81	; 129
	.db #0x81	; 129
	.db #0x81	; 129
	.db #0x81	; 129
	.db #0x81	; 129
	.db #0x81	; 129
	.db #0x81	; 129
	.db #0x81	; 129
	.db #0x81	; 129
	.db #0x81	; 129
	.db #0x81	; 129
	.db #0x81	; 129
	.db #0x81	; 129
	.db #0x81	; 129
	.db #0x81	; 129
	.db #0x81	; 129
	.db #0x81	; 129
	.db #0x81	; 129
	.db #0x81	; 129
	.db #0x81	; 129
	.db #0x81	; 129
	.db #0x81	; 129
	.db #0x81	; 129
	.db #0x81	; 129
	.db #0x81	; 129
	.db #0x81	; 129
	.db #0x81	; 129
	.db #0x81	; 129
	.db #0x81	; 129
	.db #0x81	; 129
	.db #0x81	; 129
	.db #0x81	; 129
	.db #0x81	; 129
	.db #0x81	; 129
	.db #0x81	; 129
	.db #0x81	; 129
	.db #0x81	; 129
	.db #0x81	; 129
	.db #0x81	; 129
	.db #0x81	; 129
	.db #0x81	; 129
	.db #0xff	; 255
	.db #0x00	; 0
	.db #0x00	; 0
	.db #0x00	; 0
	.db #0x00	; 0
	.db #0x00	; 0
	.db #0x00	; 0
	.db #0x00	; 0
	.db #0x00	; 0
	.db #0x00	; 0
	.db #0x00	; 0
G$fonte$0$0 == .
_fonte:
	.db #0x00	; 0
	.db #0x00	; 0
	.db #0x00	; 0
	.db #0x00	; 0
	.db #0x00	; 0
	.db #0x00	; 0
	.db #0x00	; 0
	.db #0x5f	; 95
	.db #0x00	; 0
	.db #0x00	; 0
	.db #0x00	; 0
	.db #0x07	; 7
	.db #0x00	; 0
	.db #0x07	; 7
	.db #0x00	; 0
	.db #0x14	; 20
	.db #0x7f	; 127
	.db #0x14	; 20
	.db #0x7f	; 127
	.db #0x14	; 20
	.db #0x24	; 36
	.db #0x2a	; 42
	.db #0x7f	; 127
	.db #0x2a	; 42
	.db #0x12	; 18
	.db #0x23	; 35
	.db #0x13	; 19
	.db #0x08	; 8
	.db #0x64	; 100	'd'
	.db #0x62	; 98	'b'
	.db #0x36	; 54	'6'
	.db #0x49	; 73	'I'
	.db #0x55	; 85	'U'
	.db #0x22	; 34
	.db #0x50	; 80	'P'
	.db #0x00	; 0
	.db #0x05	; 5
	.db #0x03	; 3
	.db #0x00	; 0
	.db #0x00	; 0
	.db #0x00	; 0
	.db #0x1c	; 28
	.db #0x22	; 34
	.db #0x41	; 65	'A'
	.db #0x00	; 0
	.db #0x00	; 0
	.db #0x41	; 65	'A'
	.db #0x22	; 34
	.db #0x1c	; 28
	.db #0x00	; 0
	.db #0x08	; 8
	.db #0x2a	; 42
	.db #0x1c	; 28
	.db #0x2a	; 42
	.db #0x08	; 8
	.db #0x08	; 8
	.db #0x08	; 8
	.db #0x3e	; 62
	.db #0x08	; 8
	.db #0x08	; 8
	.db #0x00	; 0
	.db #0x50	; 80	'P'
	.db #0x30	; 48	'0'
	.db #0x00	; 0
	.db #0x00	; 0
	.db #0x08	; 8
	.db #0x08	; 8
	.db #0x08	; 8
	.db #0x08	; 8
	.db #0x08	; 8
	.db #0x00	; 0
	.db #0x30	; 48	'0'
	.db #0x30	; 48	'0'
	.db #0x00	; 0
	.db #0x00	; 0
	.db #0x20	; 32
	.db #0x10	; 16
	.db #0x08	; 8
	.db #0x04	; 4
	.db #0x02	; 2
	.db #0x3e	; 62
	.db #0x51	; 81	'Q'
	.db #0x49	; 73	'I'
	.db #0x45	; 69	'E'
	.db #0x3e	; 62
	.db #0x00	; 0
	.db #0x42	; 66	'B'
	.db #0x7f	; 127
	.db #0x40	; 64
	.db #0x00	; 0
	.db #0x42	; 66	'B'
	.db #0x61	; 97	'a'
	.db #0x51	; 81	'Q'
	.db #0x49	; 73	'I'
	.db #0x46	; 70	'F'
	.db #0x21	; 33
	.db #0x41	; 65	'A'
	.db #0x45	; 69	'E'
	.db #0x4b	; 75	'K'
	.db #0x31	; 49	'1'
	.db #0x18	; 24
	.db #0x14	; 20
	.db #0x12	; 18
	.db #0x7f	; 127
	.db #0x10	; 16
	.db #0x27	; 39
	.db #0x45	; 69	'E'
	.db #0x45	; 69	'E'
	.db #0x45	; 69	'E'
	.db #0x39	; 57	'9'
	.db #0x3c	; 60
	.db #0x4a	; 74	'J'
	.db #0x49	; 73	'I'
	.db #0x49	; 73	'I'
	.db #0x30	; 48	'0'
	.db #0x01	; 1
	.db #0x71	; 113	'q'
	.db #0x09	; 9
	.db #0x05	; 5
	.db #0x03	; 3
	.db #0x36	; 54	'6'
	.db #0x49	; 73	'I'
	.db #0x49	; 73	'I'
	.db #0x49	; 73	'I'
	.db #0x36	; 54	'6'
	.db #0x06	; 6
	.db #0x49	; 73	'I'
	.db #0x49	; 73	'I'
	.db #0x29	; 41
	.db #0x1e	; 30
	.db #0x00	; 0
	.db #0x36	; 54	'6'
	.db #0x36	; 54	'6'
	.db #0x00	; 0
	.db #0x00	; 0
	.db #0x00	; 0
	.db #0x56	; 86	'V'
	.db #0x36	; 54	'6'
	.db #0x00	; 0
	.db #0x00	; 0
	.db #0x00	; 0
	.db #0x08	; 8
	.db #0x14	; 20
	.db #0x22	; 34
	.db #0x41	; 65	'A'
	.db #0x14	; 20
	.db #0x14	; 20
	.db #0x14	; 20
	.db #0x14	; 20
	.db #0x14	; 20
	.db #0x41	; 65	'A'
	.db #0x22	; 34
	.db #0x14	; 20
	.db #0x08	; 8
	.db #0x00	; 0
	.db #0x02	; 2
	.db #0x01	; 1
	.db #0x51	; 81	'Q'
	.db #0x09	; 9
	.db #0x06	; 6
	.db #0x32	; 50	'2'
	.db #0x49	; 73	'I'
	.db #0x79	; 121	'y'
	.db #0x41	; 65	'A'
	.db #0x3e	; 62
	.db #0x7e	; 126
	.db #0x11	; 17
	.db #0x11	; 17
	.db #0x11	; 17
	.db #0x7e	; 126
	.db #0x7f	; 127
	.db #0x49	; 73	'I'
	.db #0x49	; 73	'I'
	.db #0x49	; 73	'I'
	.db #0x36	; 54	'6'
	.db #0x3e	; 62
	.db #0x41	; 65	'A'
	.db #0x41	; 65	'A'
	.db #0x41	; 65	'A'
	.db #0x22	; 34
	.db #0x7f	; 127
	.db #0x41	; 65	'A'
	.db #0x41	; 65	'A'
	.db #0x22	; 34
	.db #0x1c	; 28
	.db #0x7f	; 127
	.db #0x49	; 73	'I'
	.db #0x49	; 73	'I'
	.db #0x49	; 73	'I'
	.db #0x41	; 65	'A'
	.db #0x7f	; 127
	.db #0x09	; 9
	.db #0x09	; 9
	.db #0x01	; 1
	.db #0x01	; 1
	.db #0x3e	; 62
	.db #0x41	; 65	'A'
	.db #0x41	; 65	'A'
	.db #0x51	; 81	'Q'
	.db #0x32	; 50	'2'
	.db #0x7f	; 127
	.db #0x08	; 8
	.db #0x08	; 8
	.db #0x08	; 8
	.db #0x7f	; 127
	.db #0x00	; 0
	.db #0x41	; 65	'A'
	.db #0x7f	; 127
	.db #0x41	; 65	'A'
	.db #0x00	; 0
	.db #0x20	; 32
	.db #0x40	; 64
	.db #0x41	; 65	'A'
	.db #0x3f	; 63
	.db #0x01	; 1
	.db #0x7f	; 127
	.db #0x08	; 8
	.db #0x14	; 20
	.db #0x22	; 34
	.db #0x41	; 65	'A'
	.db #0x7f	; 127
	.db #0x40	; 64
	.db #0x40	; 64
	.db #0x40	; 64
	.db #0x40	; 64
	.db #0x7f	; 127
	.db #0x02	; 2
	.db #0x04	; 4
	.db #0x02	; 2
	.db #0x7f	; 127
	.db #0x7f	; 127
	.db #0x04	; 4
	.db #0x08	; 8
	.db #0x10	; 16
	.db #0x7f	; 127
	.db #0x3e	; 62
	.db #0x41	; 65	'A'
	.db #0x41	; 65	'A'
	.db #0x41	; 65	'A'
	.db #0x3e	; 62
	.db #0x7f	; 127
	.db #0x09	; 9
	.db #0x09	; 9
	.db #0x09	; 9
	.db #0x06	; 6
	.db #0x3e	; 62
	.db #0x41	; 65	'A'
	.db #0x51	; 81	'Q'
	.db #0x21	; 33
	.db #0x5e	; 94
	.db #0x7f	; 127
	.db #0x09	; 9
	.db #0x19	; 25
	.db #0x29	; 41
	.db #0x46	; 70	'F'
	.db #0x46	; 70	'F'
	.db #0x49	; 73	'I'
	.db #0x49	; 73	'I'
	.db #0x49	; 73	'I'
	.db #0x31	; 49	'1'
	.db #0x01	; 1
	.db #0x01	; 1
	.db #0x7f	; 127
	.db #0x01	; 1
	.db #0x01	; 1
	.db #0x3f	; 63
	.db #0x40	; 64
	.db #0x40	; 64
	.db #0x40	; 64
	.db #0x3f	; 63
	.db #0x1f	; 31
	.db #0x20	; 32
	.db #0x40	; 64
	.db #0x20	; 32
	.db #0x1f	; 31
	.db #0x7f	; 127
	.db #0x20	; 32
	.db #0x18	; 24
	.db #0x20	; 32
	.db #0x7f	; 127
	.db #0x63	; 99	'c'
	.db #0x14	; 20
	.db #0x08	; 8
	.db #0x14	; 20
	.db #0x63	; 99	'c'
	.db #0x03	; 3
	.db #0x04	; 4
	.db #0x78	; 120	'x'
	.db #0x04	; 4
	.db #0x03	; 3
	.db #0x61	; 97	'a'
	.db #0x51	; 81	'Q'
	.db #0x49	; 73	'I'
	.db #0x45	; 69	'E'
	.db #0x43	; 67	'C'
	.db #0x00	; 0
	.db #0x00	; 0
	.db #0x7f	; 127
	.db #0x41	; 65	'A'
	.db #0x41	; 65	'A'
	.db #0x02	; 2
	.db #0x04	; 4
	.db #0x08	; 8
	.db #0x10	; 16
	.db #0x20	; 32
	.db #0x41	; 65	'A'
	.db #0x41	; 65	'A'
	.db #0x7f	; 127
	.db #0x00	; 0
	.db #0x00	; 0
	.db #0x04	; 4
	.db #0x02	; 2
	.db #0x01	; 1
	.db #0x02	; 2
	.db #0x04	; 4
	.db #0x40	; 64
	.db #0x40	; 64
	.db #0x40	; 64
	.db #0x40	; 64
	.db #0x40	; 64
	.db #0x00	; 0
	.db #0x01	; 1
	.db #0x02	; 2
	.db #0x04	; 4
	.db #0x00	; 0
	.db #0x20	; 32
	.db #0x54	; 84	'T'
	.db #0x54	; 84	'T'
	.db #0x54	; 84	'T'
	.db #0x78	; 120	'x'
	.db #0x7f	; 127
	.db #0x48	; 72	'H'
	.db #0x44	; 68	'D'
	.db #0x44	; 68	'D'
	.db #0x38	; 56	'8'
	.db #0x38	; 56	'8'
	.db #0x44	; 68	'D'
	.db #0x44	; 68	'D'
	.db #0x44	; 68	'D'
	.db #0x20	; 32
	.db #0x38	; 56	'8'
	.db #0x44	; 68	'D'
	.db #0x44	; 68	'D'
	.db #0x48	; 72	'H'
	.db #0x7f	; 127
	.db #0x38	; 56	'8'
	.db #0x54	; 84	'T'
	.db #0x54	; 84	'T'
	.db #0x54	; 84	'T'
	.db #0x18	; 24
	.db #0x08	; 8
	.db #0x7e	; 126
	.db #0x09	; 9
	.db #0x01	; 1
	.db #0x02	; 2
	.db #0x08	; 8
	.db #0x14	; 20
	.db #0x54	; 84	'T'
	.db #0x54	; 84	'T'
	.db #0x3c	; 60
	.db #0x7f	; 127
	.db #0x08	; 8
	.db #0x04	; 4
	.db #0x04	; 4
	.db #0x78	; 120	'x'
	.db #0x00	; 0
	.db #0x44	; 68	'D'
	.db #0x7d	; 125
	.db #0x40	; 64
	.db #0x00	; 0
	.db #0x20	; 32
	.db #0x40	; 64
	.db #0x44	; 68	'D'
	.db #0x3d	; 61
	.db #0x00	; 0
	.db #0x00	; 0
	.db #0x7f	; 127
	.db #0x10	; 16
	.db #0x28	; 40
	.db #0x44	; 68	'D'
	.db #0x00	; 0
	.db #0x41	; 65	'A'
	.db #0x7f	; 127
	.db #0x40	; 64
	.db #0x00	; 0
	.db #0x7c	; 124
	.db #0x04	; 4
	.db #0x18	; 24
	.db #0x04	; 4
	.db #0x78	; 120	'x'
	.db #0x7c	; 124
	.db #0x08	; 8
	.db #0x04	; 4
	.db #0x04	; 4
	.db #0x78	; 120	'x'
	.db #0x38	; 56	'8'
	.db #0x44	; 68	'D'
	.db #0x44	; 68	'D'
	.db #0x44	; 68	'D'
	.db #0x38	; 56	'8'
	.db #0x7c	; 124
	.db #0x14	; 20
	.db #0x14	; 20
	.db #0x14	; 20
	.db #0x08	; 8
	.db #0x08	; 8
	.db #0x14	; 20
	.db #0x14	; 20
	.db #0x18	; 24
	.db #0x7c	; 124
	.db #0x7c	; 124
	.db #0x08	; 8
	.db #0x04	; 4
	.db #0x04	; 4
	.db #0x08	; 8
	.db #0x48	; 72	'H'
	.db #0x54	; 84	'T'
	.db #0x54	; 84	'T'
	.db #0x54	; 84	'T'
	.db #0x20	; 32
	.db #0x04	; 4
	.db #0x3f	; 63
	.db #0x44	; 68	'D'
	.db #0x40	; 64
	.db #0x20	; 32
	.db #0x3c	; 60
	.db #0x40	; 64
	.db #0x40	; 64
	.db #0x20	; 32
	.db #0x7c	; 124
	.db #0x1c	; 28
	.db #0x20	; 32
	.db #0x40	; 64
	.db #0x20	; 32
	.db #0x1c	; 28
	.db #0x3c	; 60
	.db #0x40	; 64
	.db #0x30	; 48	'0'
	.db #0x40	; 64
	.db #0x3c	; 60
	.db #0x44	; 68	'D'
	.db #0x28	; 40
	.db #0x10	; 16
	.db #0x28	; 40
	.db #0x44	; 68	'D'
	.db #0x0c	; 12
	.db #0x50	; 80	'P'
	.db #0x50	; 80	'P'
	.db #0x50	; 80	'P'
	.db #0x3c	; 60
	.db #0x44	; 68	'D'
	.db #0x64	; 100	'd'
	.db #0x54	; 84	'T'
	.db #0x4c	; 76	'L'
	.db #0x44	; 68	'D'
	.db #0x00	; 0
	.db #0x08	; 8
	.db #0x36	; 54	'6'
	.db #0x41	; 65	'A'
	.db #0x00	; 0
	.db #0x00	; 0
	.db #0x00	; 0
	.db #0x7f	; 127
	.db #0x00	; 0
	.db #0x00	; 0
	.db #0x00	; 0
	.db #0x41	; 65	'A'
	.db #0x36	; 54	'6'
	.db #0x08	; 8
	.db #0x00	; 0
	.db #0x08	; 8
	.db #0x08	; 8
	.db #0x2a	; 42
	.db #0x1c	; 28
	.db #0x08	; 8
	.db #0x08	; 8
	.db #0x1c	; 28
	.db #0x2a	; 42
	.db #0x08	; 8
	.db #0x08	; 8
Fmain$__str_0$0$0 == .
___str_0:
	.db 0x02
	.ascii " RECEIVER"
	.db 0x00
Fmain$__str_1$0$0 == .
___str_1:
	.db 0x04
	.ascii " UART  = 0x%x"
	.db 0x00
Fmain$__str_2$0$0 == .
___str_2:
	.db 0x05
	.ascii " byteL = 0x%x"
	.db 0x00
Fmain$__str_3$0$0 == .
___str_3:
	.db 0x06
	.ascii " byteH = 0x%x"
	.db 0x00
Fmain$__str_4$0$0 == .
___str_4:
	.db 0x07
	.ascii " ADC   = %d "
	.db 0x00
	.area XINIT   (CODE)
	.area CABS    (ABS,CODE)
